ARM GAS  C:\Users\galla\AppData\Local\Temp\ccPx7zrr.s 			page 1


   1              		.cpu cortex-m7
   2              		.eabi_attribute 28, 1
   3              		.eabi_attribute 20, 1
   4              		.eabi_attribute 21, 1
   5              		.eabi_attribute 23, 3
   6              		.eabi_attribute 24, 1
   7              		.eabi_attribute 25, 1
   8              		.eabi_attribute 26, 1
   9              		.eabi_attribute 30, 2
  10              		.eabi_attribute 34, 1
  11              		.eabi_attribute 18, 4
  12              		.file	"Blink.cpp"
  13              		.text
  14              	.Ltext0:
  15              		.cfi_sections	.debug_frame
  16              		.section	.text._ZN5daisy7EncoderD2Ev,"axG",%progbits,_ZN5daisy7EncoderD5Ev,comdat
  17              		.align	1
  18              		.p2align 2,,3
  19              		.weak	_ZN5daisy7EncoderD2Ev
  20              		.arch armv7e-m
  21              		.syntax unified
  22              		.thumb
  23              		.thumb_func
  24              		.fpu fpv5-d16
  26              	_ZN5daisy7EncoderD2Ev:
  27              	.LVL0:
  28              	.LFB1651:
  29              		.file 1 "../../libDaisy/src/hid/encoder.h"
   1:../../libDaisy/src/hid/encoder.h **** #pragma once
   2:../../libDaisy/src/hid/encoder.h **** #ifndef DSY_ENCODER_H
   3:../../libDaisy/src/hid/encoder.h **** #define DSY_ENCODER_H
   4:../../libDaisy/src/hid/encoder.h **** #include "daisy_core.h"
   5:../../libDaisy/src/hid/encoder.h **** #include "per/gpio.h"
   6:../../libDaisy/src/hid/encoder.h **** #include "hid/switch.h"
   7:../../libDaisy/src/hid/encoder.h **** 
   8:../../libDaisy/src/hid/encoder.h **** namespace daisy
   9:../../libDaisy/src/hid/encoder.h **** {
  10:../../libDaisy/src/hid/encoder.h **** /** 
  11:../../libDaisy/src/hid/encoder.h ****     @brief Generic Class for handling Quadrature Encoders \n 
  12:../../libDaisy/src/hid/encoder.h ****     Inspired/influenced by Mutable Instruments (pichenettes) Encoder classes
  13:../../libDaisy/src/hid/encoder.h ****     @author Stephen Hensley
  14:../../libDaisy/src/hid/encoder.h ****     @date December 2019
  15:../../libDaisy/src/hid/encoder.h ****     @ingroup controls
  16:../../libDaisy/src/hid/encoder.h **** */
  17:../../libDaisy/src/hid/encoder.h **** class Encoder
  18:../../libDaisy/src/hid/encoder.h **** {
  19:../../libDaisy/src/hid/encoder.h ****   public:
  20:../../libDaisy/src/hid/encoder.h ****     Encoder() {}
  21:../../libDaisy/src/hid/encoder.h ****     ~Encoder() {}
  30              		.loc 1 21 5 view -0
  31              		.cfi_startproc
  32              		@ args = 0, pretend = 0, frame = 0
  33              		@ frame_needed = 0, uses_anonymous_args = 0
  34              		@ link register save eliminated.
  35              	.LBB357:
  36              	.LBI357:
  37              		.file 2 "../../libDaisy/src/hid/switch.h"
ARM GAS  C:\Users\galla\AppData\Local\Temp\ccPx7zrr.s 			page 2


   1:../../libDaisy/src/hid/switch.h **** #pragma once
   2:../../libDaisy/src/hid/switch.h **** #ifndef DSY_SWITCH_H
   3:../../libDaisy/src/hid/switch.h **** #define DSY_SWITCH_H
   4:../../libDaisy/src/hid/switch.h **** #include "daisy_core.h"
   5:../../libDaisy/src/hid/switch.h **** #include "per/gpio.h"
   6:../../libDaisy/src/hid/switch.h **** #include "sys/system.h"
   7:../../libDaisy/src/hid/switch.h **** 
   8:../../libDaisy/src/hid/switch.h **** namespace daisy
   9:../../libDaisy/src/hid/switch.h **** {
  10:../../libDaisy/src/hid/switch.h **** /** 
  11:../../libDaisy/src/hid/switch.h ****     Generic Class for handling momentary/latching switches \n 
  12:../../libDaisy/src/hid/switch.h ****     Inspired/influenced by Mutable Instruments (pichenettes) Switch classes
  13:../../libDaisy/src/hid/switch.h ****     @author Stephen Hensley
  14:../../libDaisy/src/hid/switch.h ****     @date December 2019
  15:../../libDaisy/src/hid/switch.h ****     @ingroup controls
  16:../../libDaisy/src/hid/switch.h **** */
  17:../../libDaisy/src/hid/switch.h **** class Switch
  18:../../libDaisy/src/hid/switch.h **** {
  19:../../libDaisy/src/hid/switch.h ****   public:
  20:../../libDaisy/src/hid/switch.h ****     /** Specifies the expected behavior of the switch */
  21:../../libDaisy/src/hid/switch.h ****     enum Type
  22:../../libDaisy/src/hid/switch.h ****     {
  23:../../libDaisy/src/hid/switch.h ****         TYPE_TOGGLE,    /**< & */
  24:../../libDaisy/src/hid/switch.h ****         TYPE_MOMENTARY, /**< & */
  25:../../libDaisy/src/hid/switch.h ****     };
  26:../../libDaisy/src/hid/switch.h ****     /** Specifies whether the pressed is HIGH or LOW. */
  27:../../libDaisy/src/hid/switch.h ****     enum Polarity
  28:../../libDaisy/src/hid/switch.h ****     {
  29:../../libDaisy/src/hid/switch.h ****         POLARITY_NORMAL,   /**< & */
  30:../../libDaisy/src/hid/switch.h ****         POLARITY_INVERTED, /**< & */
  31:../../libDaisy/src/hid/switch.h ****     };
  32:../../libDaisy/src/hid/switch.h **** 
  33:../../libDaisy/src/hid/switch.h ****     /** Specifies whether to use built-in Pull Up/Down resistors to hold button at a given state wh
  34:../../libDaisy/src/hid/switch.h ****     enum Pull
  35:../../libDaisy/src/hid/switch.h ****     {
  36:../../libDaisy/src/hid/switch.h ****         PULL_UP,   /**< & */
  37:../../libDaisy/src/hid/switch.h ****         PULL_DOWN, /**< & */
  38:../../libDaisy/src/hid/switch.h ****         PULL_NONE, /**< & */
  39:../../libDaisy/src/hid/switch.h ****     };
  40:../../libDaisy/src/hid/switch.h **** 
  41:../../libDaisy/src/hid/switch.h ****     Switch() {}
  42:../../libDaisy/src/hid/switch.h ****     ~Switch() {}
  38              		.loc 2 42 5 view .LVU1
  39              		.loc 2 42 5 is_stmt 0 view .LVU2
  40              	.LBE357:
  41              		.loc 1 21 17 view .LVU3
  42 0000 7047     		bx	lr
  43              		.cfi_endproc
  44              	.LFE1651:
  46              		.weak	_ZN5daisy7EncoderD1Ev
  47              		.thumb_set _ZN5daisy7EncoderD1Ev,_ZN5daisy7EncoderD2Ev
  48 0002 00BF     		.section	.text._ZN5daisy9DaisySeedD2Ev,"axG",%progbits,_ZN5daisy9DaisySeedD5Ev,comdat
  49              		.align	1
  50              		.p2align 2,,3
  51              		.weak	_ZN5daisy9DaisySeedD2Ev
  52              		.syntax unified
  53              		.thumb
ARM GAS  C:\Users\galla\AppData\Local\Temp\ccPx7zrr.s 			page 3


  54              		.thumb_func
  55              		.fpu fpv5-d16
  57              	_ZN5daisy9DaisySeedD2Ev:
  58              	.LVL1:
  59              	.LFB2555:
  60              		.file 3 "../../libDaisy/src/daisy_seed.h"
   1:../../libDaisy/src/daisy_seed.h **** #pragma once
   2:../../libDaisy/src/daisy_seed.h **** #ifndef DSY_SEED_H
   3:../../libDaisy/src/daisy_seed.h **** #define DSY_SEED_H
   4:../../libDaisy/src/daisy_seed.h **** 
   5:../../libDaisy/src/daisy_seed.h **** #include "daisy.h"
   6:../../libDaisy/src/daisy_seed.h **** 
   7:../../libDaisy/src/daisy_seed.h **** //Uncomment this out if you're still using the rev2 hardware
   8:../../libDaisy/src/daisy_seed.h **** //#define SEED_REV2
   9:../../libDaisy/src/daisy_seed.h **** 
  10:../../libDaisy/src/daisy_seed.h **** namespace daisy
  11:../../libDaisy/src/daisy_seed.h **** {
  12:../../libDaisy/src/daisy_seed.h **** /**
  13:../../libDaisy/src/daisy_seed.h ****    @brief This is the higher-level interface for the Daisy board. \n 
  14:../../libDaisy/src/daisy_seed.h ****     All basic peripheral configuration/initialization is setup here. \n
  15:../../libDaisy/src/daisy_seed.h **** 
  16:../../libDaisy/src/daisy_seed.h ****    @ingroup boards
  17:../../libDaisy/src/daisy_seed.h **** */
  18:../../libDaisy/src/daisy_seed.h **** class DaisySeed
  19:../../libDaisy/src/daisy_seed.h **** {
  20:../../libDaisy/src/daisy_seed.h ****   public:
  21:../../libDaisy/src/daisy_seed.h ****     DaisySeed() {}
  22:../../libDaisy/src/daisy_seed.h ****     ~DaisySeed() {}
  61              		.loc 3 22 5 is_stmt 1 view -0
  62              		.cfi_startproc
  63              		@ args = 0, pretend = 0, frame = 0
  64              		@ frame_needed = 0, uses_anonymous_args = 0
  65              		@ link register save eliminated.
  66              	.LBB358:
  67              	.LBI358:
  68              		.file 4 "../../libDaisy/src/sys/system.h"
   1:../../libDaisy/src/sys/system.h **** #ifndef DSY_SYSTEM_H
   2:../../libDaisy/src/sys/system.h **** #define DSY_SYSTEM_H
   3:../../libDaisy/src/sys/system.h **** 
   4:../../libDaisy/src/sys/system.h **** #ifndef UNIT_TEST // for unit tests, a dummy implementation is provided below
   5:../../libDaisy/src/sys/system.h **** 
   6:../../libDaisy/src/sys/system.h **** #include <cstdint>
   7:../../libDaisy/src/sys/system.h **** #include "per/tim.h"
   8:../../libDaisy/src/sys/system.h **** 
   9:../../libDaisy/src/sys/system.h **** namespace daisy
  10:../../libDaisy/src/sys/system.h **** {
  11:../../libDaisy/src/sys/system.h **** /** A handle for interacting with the Core System.
  12:../../libDaisy/src/sys/system.h ****  ** This includes the Clock tree, MPU, global DMA initialization,
  13:../../libDaisy/src/sys/system.h ****  ** cache handling, and any other necessary global initiailzation
  14:../../libDaisy/src/sys/system.h ****  **
  15:../../libDaisy/src/sys/system.h ****  ** @author shensley
  16:../../libDaisy/src/sys/system.h ****  ** @ingroup system
  17:../../libDaisy/src/sys/system.h ****  */
  18:../../libDaisy/src/sys/system.h **** class System
  19:../../libDaisy/src/sys/system.h **** {
  20:../../libDaisy/src/sys/system.h ****   public:
  21:../../libDaisy/src/sys/system.h ****     /** Contains settings for initializing the System */
ARM GAS  C:\Users\galla\AppData\Local\Temp\ccPx7zrr.s 			page 4


  22:../../libDaisy/src/sys/system.h ****     struct Config
  23:../../libDaisy/src/sys/system.h ****     {
  24:../../libDaisy/src/sys/system.h ****         /** Specifies the system clock frequency that feeds APB/AHB clocks, etc. */
  25:../../libDaisy/src/sys/system.h ****         enum class SysClkFreq
  26:../../libDaisy/src/sys/system.h ****         {
  27:../../libDaisy/src/sys/system.h ****             FREQ_400MHZ,
  28:../../libDaisy/src/sys/system.h ****             FREQ_480MHZ,
  29:../../libDaisy/src/sys/system.h ****         };
  30:../../libDaisy/src/sys/system.h **** 
  31:../../libDaisy/src/sys/system.h ****         /** Method to call on the struct to set to defaults
  32:../../libDaisy/src/sys/system.h ****          ** CPU Freq set to 400MHz
  33:../../libDaisy/src/sys/system.h ****          ** Cache Enabled
  34:../../libDaisy/src/sys/system.h ****          ** */
  35:../../libDaisy/src/sys/system.h ****         void Defaults()
  36:../../libDaisy/src/sys/system.h ****         {
  37:../../libDaisy/src/sys/system.h ****             cpu_freq    = SysClkFreq::FREQ_400MHZ;
  38:../../libDaisy/src/sys/system.h ****             use_dcache  = true;
  39:../../libDaisy/src/sys/system.h ****             use_icache  = true;
  40:../../libDaisy/src/sys/system.h ****             skip_clocks = false;
  41:../../libDaisy/src/sys/system.h ****         }
  42:../../libDaisy/src/sys/system.h **** 
  43:../../libDaisy/src/sys/system.h ****         /** Method to call on the struct to set to boost mode:
  44:../../libDaisy/src/sys/system.h ****          ** CPU Freq set to 480MHz
  45:../../libDaisy/src/sys/system.h ****          ** Cache Enabled
  46:../../libDaisy/src/sys/system.h ****          ** */
  47:../../libDaisy/src/sys/system.h ****         void Boost()
  48:../../libDaisy/src/sys/system.h ****         {
  49:../../libDaisy/src/sys/system.h ****             cpu_freq    = SysClkFreq::FREQ_480MHZ;
  50:../../libDaisy/src/sys/system.h ****             use_dcache  = true;
  51:../../libDaisy/src/sys/system.h ****             use_icache  = true;
  52:../../libDaisy/src/sys/system.h ****             skip_clocks = false;
  53:../../libDaisy/src/sys/system.h ****         }
  54:../../libDaisy/src/sys/system.h **** 
  55:../../libDaisy/src/sys/system.h ****         SysClkFreq cpu_freq;
  56:../../libDaisy/src/sys/system.h ****         bool       use_dcache;
  57:../../libDaisy/src/sys/system.h ****         bool       use_icache;
  58:../../libDaisy/src/sys/system.h ****         bool       skip_clocks;
  59:../../libDaisy/src/sys/system.h ****     };
  60:../../libDaisy/src/sys/system.h **** 
  61:../../libDaisy/src/sys/system.h ****     /** Describes the different regions of memory available to the Daisy */
  62:../../libDaisy/src/sys/system.h ****     enum MemoryRegion
  63:../../libDaisy/src/sys/system.h ****     {
  64:../../libDaisy/src/sys/system.h ****         INTERNAL_FLASH = 0,
  65:../../libDaisy/src/sys/system.h ****         ITCMRAM,
  66:../../libDaisy/src/sys/system.h ****         DTCMRAM,
  67:../../libDaisy/src/sys/system.h ****         SRAM_D1,
  68:../../libDaisy/src/sys/system.h ****         SRAM_D2,
  69:../../libDaisy/src/sys/system.h ****         SRAM_D3,
  70:../../libDaisy/src/sys/system.h ****         SDRAM,
  71:../../libDaisy/src/sys/system.h ****         QSPI,
  72:../../libDaisy/src/sys/system.h ****         INVALID_ADDRESS,
  73:../../libDaisy/src/sys/system.h ****     };
  74:../../libDaisy/src/sys/system.h **** 
  75:../../libDaisy/src/sys/system.h ****     /** Bootloader struct for controlling bootloading parameters */
  76:../../libDaisy/src/sys/system.h ****     struct BootInfo
  77:../../libDaisy/src/sys/system.h ****     {
  78:../../libDaisy/src/sys/system.h ****         enum class Type : uint32_t
ARM GAS  C:\Users\galla\AppData\Local\Temp\ccPx7zrr.s 			page 5


  79:../../libDaisy/src/sys/system.h ****         {
  80:../../libDaisy/src/sys/system.h ****             INVALID      = 0x00000000,
  81:../../libDaisy/src/sys/system.h ****             JUMP         = 0xDEADBEEF,
  82:../../libDaisy/src/sys/system.h ****             SKIP_TIMEOUT = 0x5AFEB007,
  83:../../libDaisy/src/sys/system.h ****             INF_TIMEOUT  = 0xB0074EFA,
  84:../../libDaisy/src/sys/system.h ****         } status;
  85:../../libDaisy/src/sys/system.h ****         uint32_t data;
  86:../../libDaisy/src/sys/system.h ****         enum class Version : uint32_t
  87:../../libDaisy/src/sys/system.h ****         {
  88:../../libDaisy/src/sys/system.h ****             LT_v6_0 = 0, // Less than v6.0
  89:../../libDaisy/src/sys/system.h ****             NONE,        // No bootloader present
  90:../../libDaisy/src/sys/system.h ****             v6_0,        // v6.0
  91:../../libDaisy/src/sys/system.h ****             v6_1,        // v6.1 or greater
  92:../../libDaisy/src/sys/system.h ****             LAST
  93:../../libDaisy/src/sys/system.h ****         } version;
  94:../../libDaisy/src/sys/system.h ****     };
  95:../../libDaisy/src/sys/system.h **** 
  96:../../libDaisy/src/sys/system.h ****     System() {}
  97:../../libDaisy/src/sys/system.h ****     ~System() {}
  69              		.loc 4 97 5 view .LVU5
  70              		.loc 4 97 5 is_stmt 0 view .LVU6
  71              	.LBE358:
  72              	.LBB359:
  73              	.LBI359:
  74              		.file 5 "../../libDaisy/src/hid/usb.h"
   1:../../libDaisy/src/hid/usb.h **** #pragma once
   2:../../libDaisy/src/hid/usb.h **** #ifndef DSY_HID_USB_H
   3:../../libDaisy/src/hid/usb.h **** #define DSY_HID_USB_H
   4:../../libDaisy/src/hid/usb.h **** #include <stdint.h>
   5:../../libDaisy/src/hid/usb.h **** #include <stdlib.h>
   6:../../libDaisy/src/hid/usb.h **** 
   7:../../libDaisy/src/hid/usb.h **** namespace daisy
   8:../../libDaisy/src/hid/usb.h **** /** @addtogroup human_interface
   9:../../libDaisy/src/hid/usb.h ****     @{
  10:../../libDaisy/src/hid/usb.h **** */
  11:../../libDaisy/src/hid/usb.h **** 
  12:../../libDaisy/src/hid/usb.h **** {
  13:../../libDaisy/src/hid/usb.h **** /** 
  14:../../libDaisy/src/hid/usb.h ****     @brief Interface for initializing and using the USB Peripherals on the daisy
  15:../../libDaisy/src/hid/usb.h ****     @author Stephen Hensley
  16:../../libDaisy/src/hid/usb.h ****     @date December 2019
  17:../../libDaisy/src/hid/usb.h **** */
  18:../../libDaisy/src/hid/usb.h **** class UsbHandle
  19:../../libDaisy/src/hid/usb.h **** {
  20:../../libDaisy/src/hid/usb.h ****   public:
  21:../../libDaisy/src/hid/usb.h ****     /** Return values for USBHandle Functions */
  22:../../libDaisy/src/hid/usb.h ****     enum class Result
  23:../../libDaisy/src/hid/usb.h ****     {
  24:../../libDaisy/src/hid/usb.h ****         OK,
  25:../../libDaisy/src/hid/usb.h ****         ERR,
  26:../../libDaisy/src/hid/usb.h ****     };
  27:../../libDaisy/src/hid/usb.h **** 
  28:../../libDaisy/src/hid/usb.h ****     /** Specified which of the two USB Peripherals to initialize. */
  29:../../libDaisy/src/hid/usb.h ****     enum UsbPeriph
  30:../../libDaisy/src/hid/usb.h ****     {
  31:../../libDaisy/src/hid/usb.h ****         FS_INTERNAL, /**< Internal pin */
  32:../../libDaisy/src/hid/usb.h ****         FS_EXTERNAL, /**< FS External D+ pin is Pin 38 (GPIO32). FS External D- pin is Pin 37 (GPIO
ARM GAS  C:\Users\galla\AppData\Local\Temp\ccPx7zrr.s 			page 6


  33:../../libDaisy/src/hid/usb.h ****         FS_BOTH,     /**< Both */
  34:../../libDaisy/src/hid/usb.h ****     };
  35:../../libDaisy/src/hid/usb.h **** 
  36:../../libDaisy/src/hid/usb.h **** 
  37:../../libDaisy/src/hid/usb.h ****     /** Function called upon reception of a buffer */
  38:../../libDaisy/src/hid/usb.h ****     typedef void (*ReceiveCallback)(uint8_t* buff, uint32_t* len);
  39:../../libDaisy/src/hid/usb.h **** 
  40:../../libDaisy/src/hid/usb.h ****     UsbHandle() {}
  41:../../libDaisy/src/hid/usb.h **** 
  42:../../libDaisy/src/hid/usb.h ****     ~UsbHandle() {}
  75              		.loc 5 42 5 is_stmt 1 view .LVU7
  76              		.loc 5 42 5 is_stmt 0 view .LVU8
  77              	.LBE359:
  78              	.LBB360:
  79              	.LBI360:
  80              		.file 6 "../../libDaisy/src/per/adc.h"
   1:../../libDaisy/src/per/adc.h **** #pragma once
   2:../../libDaisy/src/per/adc.h **** #ifndef DSY_ADC_H
   3:../../libDaisy/src/per/adc.h **** #define DSY_ADC_H /**< Macro */
   4:../../libDaisy/src/per/adc.h **** #include <stdint.h>
   5:../../libDaisy/src/per/adc.h **** #include <stdlib.h>
   6:../../libDaisy/src/per/adc.h **** #include "daisy_core.h"
   7:../../libDaisy/src/per/adc.h **** #include "per/gpio.h"
   8:../../libDaisy/src/per/adc.h **** 
   9:../../libDaisy/src/per/adc.h **** #define DSY_ADC_MAX_CHANNELS 16 /**< Maximum number of ADC channels */
  10:../../libDaisy/src/per/adc.h **** 
  11:../../libDaisy/src/per/adc.h **** namespace daisy
  12:../../libDaisy/src/per/adc.h **** {
  13:../../libDaisy/src/per/adc.h **** /** @addtogroup per_analog
  14:../../libDaisy/src/per/adc.h ****     @{
  15:../../libDaisy/src/per/adc.h **** */
  16:../../libDaisy/src/per/adc.h **** 
  17:../../libDaisy/src/per/adc.h **** /* While there may not be many configuration options here,
  18:../../libDaisy/src/per/adc.h **** using a struct like this allows us to add more configuration
  19:../../libDaisy/src/per/adc.h **** later without breaking existing functionality.
  20:../../libDaisy/src/per/adc.h **** */
  21:../../libDaisy/src/per/adc.h **** 
  22:../../libDaisy/src/per/adc.h **** /** @brief   Configuration Structure for an ADC Channel 
  23:../../libDaisy/src/per/adc.h ****  *  @details This can be used to configure a a single input, 
  24:../../libDaisy/src/per/adc.h ****  *           or a multiplexed input, allowing up to 8 inputs on 
  25:../../libDaisy/src/per/adc.h ****  *           one channel.
  26:../../libDaisy/src/per/adc.h ****  *  @note    Sharing data lines to multiple muxes _is_ possible, but
  27:../../libDaisy/src/per/adc.h ****  *           each channel sharing data lines must be set to the maximum
  28:../../libDaisy/src/per/adc.h ****  *           number of channels, even if some multiplexers have fewer
  29:../../libDaisy/src/per/adc.h ****  *           inputs connected.
  30:../../libDaisy/src/per/adc.h **** */
  31:../../libDaisy/src/per/adc.h **** struct AdcChannelConfig
  32:../../libDaisy/src/per/adc.h **** {
  33:../../libDaisy/src/per/adc.h ****     /** Which pin to use for multiplexing */
  34:../../libDaisy/src/per/adc.h ****     enum MuxPin
  35:../../libDaisy/src/per/adc.h ****     {
  36:../../libDaisy/src/per/adc.h ****         MUX_SEL_0,    /**< & */
  37:../../libDaisy/src/per/adc.h ****         MUX_SEL_1,    /**< & */
  38:../../libDaisy/src/per/adc.h ****         MUX_SEL_2,    /**< & */
  39:../../libDaisy/src/per/adc.h ****         MUX_SEL_LAST, /**< & */
  40:../../libDaisy/src/per/adc.h ****     };
  41:../../libDaisy/src/per/adc.h **** 
ARM GAS  C:\Users\galla\AppData\Local\Temp\ccPx7zrr.s 			page 7


  42:../../libDaisy/src/per/adc.h ****     /** \brief per channel conversion speed added to fixed time based on bitdepth, etc. */
  43:../../libDaisy/src/per/adc.h ****     enum ConversionSpeed
  44:../../libDaisy/src/per/adc.h ****     {
  45:../../libDaisy/src/per/adc.h ****         SPEED_1CYCLES_5,
  46:../../libDaisy/src/per/adc.h ****         SPEED_2CYCLES_5,
  47:../../libDaisy/src/per/adc.h ****         SPEED_8CYCLES_5,
  48:../../libDaisy/src/per/adc.h ****         SPEED_16CYCLES_5,
  49:../../libDaisy/src/per/adc.h ****         SPEED_32CYCLES_5,
  50:../../libDaisy/src/per/adc.h ****         SPEED_64CYCLES_5,
  51:../../libDaisy/src/per/adc.h ****         SPEED_387CYCLES_5,
  52:../../libDaisy/src/per/adc.h ****         SPEED_810CYCLES_5,
  53:../../libDaisy/src/per/adc.h ****     };
  54:../../libDaisy/src/per/adc.h **** 
  55:../../libDaisy/src/per/adc.h ****     /** Initializes a single ADC pin as an ADC. 
  56:../../libDaisy/src/per/adc.h ****     \param pin Pin to init.
  57:../../libDaisy/src/per/adc.h ****     \param speed conversion speed for this pin defaults to 8.5 cycles
  58:../../libDaisy/src/per/adc.h ****      */
  59:../../libDaisy/src/per/adc.h ****     void InitSingle(dsy_gpio_pin pin, ConversionSpeed speed = SPEED_8CYCLES_5);
  60:../../libDaisy/src/per/adc.h **** 
  61:../../libDaisy/src/per/adc.h ****     /** 
  62:../../libDaisy/src/per/adc.h ****     Initializes a single ADC pin as a Multiplexed ADC.
  63:../../libDaisy/src/per/adc.h ****     Requires a CD405X Multiplexer connected to the pin.
  64:../../libDaisy/src/per/adc.h ****     You only need to supply the mux pins that are required,
  65:../../libDaisy/src/per/adc.h ****     e.g. a 4052 mux would only require mux_0 and mux_1.
  66:../../libDaisy/src/per/adc.h ****     Internal Callbacks handle the pin addressing.
  67:../../libDaisy/src/per/adc.h ****     \param adc_pin &
  68:../../libDaisy/src/per/adc.h ****     \param mux_channels must be 1-8
  69:../../libDaisy/src/per/adc.h ****     \param mux_0 First mux pin
  70:../../libDaisy/src/per/adc.h ****     \param mux_1 Second mux pin
  71:../../libDaisy/src/per/adc.h ****     \param mux_2 Third mux pin
  72:../../libDaisy/src/per/adc.h ****     \param speed conversion speed for this pin defaults to 8.5 cycles
  73:../../libDaisy/src/per/adc.h ****     */
  74:../../libDaisy/src/per/adc.h ****     void InitMux(dsy_gpio_pin    adc_pin,
  75:../../libDaisy/src/per/adc.h ****                  size_t          mux_channels,
  76:../../libDaisy/src/per/adc.h ****                  dsy_gpio_pin    mux_0,
  77:../../libDaisy/src/per/adc.h ****                  dsy_gpio_pin    mux_1 = {DSY_GPIOX, 0},
  78:../../libDaisy/src/per/adc.h ****                  dsy_gpio_pin    mux_2 = {DSY_GPIOX, 0},
  79:../../libDaisy/src/per/adc.h ****                  ConversionSpeed speed = SPEED_8CYCLES_5);
  80:../../libDaisy/src/per/adc.h **** 
  81:../../libDaisy/src/per/adc.h ****     dsy_gpio        pin_;                   /**< & */
  82:../../libDaisy/src/per/adc.h ****     dsy_gpio        mux_pin_[MUX_SEL_LAST]; /**< & */
  83:../../libDaisy/src/per/adc.h ****     uint8_t         mux_channels_;          /**< & */
  84:../../libDaisy/src/per/adc.h ****     ConversionSpeed speed_;
  85:../../libDaisy/src/per/adc.h **** };
  86:../../libDaisy/src/per/adc.h **** 
  87:../../libDaisy/src/per/adc.h **** /**
  88:../../libDaisy/src/per/adc.h ****    @brief Handler for analog to digital conversion
  89:../../libDaisy/src/per/adc.h **** */
  90:../../libDaisy/src/per/adc.h **** class AdcHandle
  91:../../libDaisy/src/per/adc.h **** {
  92:../../libDaisy/src/per/adc.h ****   public:
  93:../../libDaisy/src/per/adc.h ****     /** Supported oversampling amounts */
  94:../../libDaisy/src/per/adc.h ****     enum OverSampling
  95:../../libDaisy/src/per/adc.h ****     {
  96:../../libDaisy/src/per/adc.h ****         OVS_NONE, /**< & */
  97:../../libDaisy/src/per/adc.h ****         OVS_4,    /**< & */
  98:../../libDaisy/src/per/adc.h ****         OVS_8,    /**< & */
ARM GAS  C:\Users\galla\AppData\Local\Temp\ccPx7zrr.s 			page 8


  99:../../libDaisy/src/per/adc.h ****         OVS_16,   /**< & */
 100:../../libDaisy/src/per/adc.h ****         OVS_32,   /**< & */
 101:../../libDaisy/src/per/adc.h ****         OVS_64,   /**< & */
 102:../../libDaisy/src/per/adc.h ****         OVS_128,  /**< & */
 103:../../libDaisy/src/per/adc.h ****         OVS_256,  /**< & */
 104:../../libDaisy/src/per/adc.h ****         OVS_512,  /**< & */
 105:../../libDaisy/src/per/adc.h ****         OVS_1024, /**< & */
 106:../../libDaisy/src/per/adc.h ****         OVS_LAST, /**< & */
 107:../../libDaisy/src/per/adc.h ****     };
 108:../../libDaisy/src/per/adc.h **** 
 109:../../libDaisy/src/per/adc.h ****     AdcHandle() {}
 110:../../libDaisy/src/per/adc.h ****     ~AdcHandle() {}
  81              		.loc 6 110 5 is_stmt 1 view .LVU9
  82              		.loc 6 110 5 is_stmt 0 view .LVU10
  83              	.LBE360:
  84              	.LBB361:
  85              	.LBI361:
  86              		.file 7 "../../libDaisy/src/hid/audio.h"
   1:../../libDaisy/src/hid/audio.h **** #ifndef DSY_AUDIO_H
   2:../../libDaisy/src/hid/audio.h **** #define DSY_AUDIO_H /**< & */
   3:../../libDaisy/src/hid/audio.h **** 
   4:../../libDaisy/src/hid/audio.h **** #include "per/sai.h"
   5:../../libDaisy/src/hid/audio.h **** 
   6:../../libDaisy/src/hid/audio.h **** namespace daisy
   7:../../libDaisy/src/hid/audio.h **** {
   8:../../libDaisy/src/hid/audio.h **** /** @brief Audio Engine Handle
   9:../../libDaisy/src/hid/audio.h ****  *  @ingroup audio 
  10:../../libDaisy/src/hid/audio.h ****  *  @details This class allows for higher level access to an audio engine.
  11:../../libDaisy/src/hid/audio.h ****  *           If you're using a SOM like the DaisySeed or DaisyPatchSM (or any 
  12:../../libDaisy/src/hid/audio.h ****  *            board that includes one of those objects) then the intialization
  13:../../libDaisy/src/hid/audio.h ****  *            is already taken  care of.
  14:../../libDaisy/src/hid/audio.h ****  *           If you're setting up your own custom hardware, or need to make changes
  15:../../libDaisy/src/hid/audio.h ****  *           you will have to take the following steps:
  16:../../libDaisy/src/hid/audio.h ****  *             1. Create and Initialize an SaiHandle or two depending on your requirements
  17:../../libDaisy/src/hid/audio.h ****  *             2. Initialize the Audio Handle with the desired settings and the Initialized SaiHand
  18:../../libDaisy/src/hid/audio.h ****  *             3. If the connected codec requires special configuration or initialization, do so
  19:../../libDaisy/src/hid/audio.h ****  *             4. Write a callback method using either the AudioCallback or the InterleavingAudioCa
  20:../../libDaisy/src/hid/audio.h ****  *             5. Start the Audio using one of the StartAudio function
  21:../../libDaisy/src/hid/audio.h ****  */
  22:../../libDaisy/src/hid/audio.h **** class AudioHandle
  23:../../libDaisy/src/hid/audio.h **** {
  24:../../libDaisy/src/hid/audio.h ****   public:
  25:../../libDaisy/src/hid/audio.h ****     /** Manually configurable details about the Audio Engine */
  26:../../libDaisy/src/hid/audio.h ****     /** TODO: Figure out how to get samplerate in here. */
  27:../../libDaisy/src/hid/audio.h ****     struct Config
  28:../../libDaisy/src/hid/audio.h ****     {
  29:../../libDaisy/src/hid/audio.h ****         /** number of samples to process per callback */
  30:../../libDaisy/src/hid/audio.h ****         size_t blocksize;
  31:../../libDaisy/src/hid/audio.h **** 
  32:../../libDaisy/src/hid/audio.h ****         /**< Sample rate of audio */
  33:../../libDaisy/src/hid/audio.h ****         SaiHandle::Config::SampleRate samplerate;
  34:../../libDaisy/src/hid/audio.h **** 
  35:../../libDaisy/src/hid/audio.h ****         /** factor for adjustment before and after callback for hardware that may have extra headro
  36:../../libDaisy/src/hid/audio.h ****         float postgain;
  37:../../libDaisy/src/hid/audio.h **** 
  38:../../libDaisy/src/hid/audio.h ****         /** factor for additional one-sided compensation to audio path for hardware that may
  39:../../libDaisy/src/hid/audio.h ****          *  have unequal input/output ranges
ARM GAS  C:\Users\galla\AppData\Local\Temp\ccPx7zrr.s 			page 9


  40:../../libDaisy/src/hid/audio.h ****          */
  41:../../libDaisy/src/hid/audio.h ****         float output_compensation;
  42:../../libDaisy/src/hid/audio.h **** 
  43:../../libDaisy/src/hid/audio.h ****         /** Sets default values for config struct */
  44:../../libDaisy/src/hid/audio.h ****         Config()
  45:../../libDaisy/src/hid/audio.h ****         : blocksize(48),
  46:../../libDaisy/src/hid/audio.h ****           samplerate(SaiHandle::Config::SampleRate::SAI_48KHZ),
  47:../../libDaisy/src/hid/audio.h ****           postgain(1.f),
  48:../../libDaisy/src/hid/audio.h ****           output_compensation(1.f)
  49:../../libDaisy/src/hid/audio.h ****         {
  50:../../libDaisy/src/hid/audio.h ****         }
  51:../../libDaisy/src/hid/audio.h ****     };
  52:../../libDaisy/src/hid/audio.h **** 
  53:../../libDaisy/src/hid/audio.h ****     enum class Result
  54:../../libDaisy/src/hid/audio.h ****     {
  55:../../libDaisy/src/hid/audio.h ****         OK,
  56:../../libDaisy/src/hid/audio.h ****         ERR,
  57:../../libDaisy/src/hid/audio.h ****     };
  58:../../libDaisy/src/hid/audio.h **** 
  59:../../libDaisy/src/hid/audio.h ****     /** Non-Interleaving input buffer
  60:../../libDaisy/src/hid/audio.h ****      * Buffer arranged by float[chn][sample] 
  61:../../libDaisy/src/hid/audio.h ****      * const so that the user can't modify the input
  62:../../libDaisy/src/hid/audio.h ****      */
  63:../../libDaisy/src/hid/audio.h ****     typedef const float* const* InputBuffer;
  64:../../libDaisy/src/hid/audio.h **** 
  65:../../libDaisy/src/hid/audio.h ****     /** Non-Interleaving output buffer
  66:../../libDaisy/src/hid/audio.h ****      * Arranged by float[chn][sample] 
  67:../../libDaisy/src/hid/audio.h ****      */
  68:../../libDaisy/src/hid/audio.h ****     typedef float** OutputBuffer;
  69:../../libDaisy/src/hid/audio.h **** 
  70:../../libDaisy/src/hid/audio.h ****     /** Type for a Non-Interleaving audio callback 
  71:../../libDaisy/src/hid/audio.h ****      * Non-Interleaving audio callbacks in daisy will be of this type
  72:../../libDaisy/src/hid/audio.h ****      */
  73:../../libDaisy/src/hid/audio.h ****     typedef void (*AudioCallback)(InputBuffer  in,
  74:../../libDaisy/src/hid/audio.h ****                                   OutputBuffer out,
  75:../../libDaisy/src/hid/audio.h ****                                   size_t       size);
  76:../../libDaisy/src/hid/audio.h **** 
  77:../../libDaisy/src/hid/audio.h ****     /** Interleaving Input buffer
  78:../../libDaisy/src/hid/audio.h ****      ** audio is prepared as { L0, R0, L1, R1, . . . LN, RN }]
  79:../../libDaisy/src/hid/audio.h ****      ** this is const, as the user shouldn't modify it
  80:../../libDaisy/src/hid/audio.h ****     */
  81:../../libDaisy/src/hid/audio.h ****     typedef const float* InterleavingInputBuffer;
  82:../../libDaisy/src/hid/audio.h **** 
  83:../../libDaisy/src/hid/audio.h ****     /** Interleaving Output buffer 
  84:../../libDaisy/src/hid/audio.h ****      ** audio is prepared as { L0, R0, L1, R1, . . . LN, RN }
  85:../../libDaisy/src/hid/audio.h ****     */
  86:../../libDaisy/src/hid/audio.h ****     typedef float* InterleavingOutputBuffer;
  87:../../libDaisy/src/hid/audio.h **** 
  88:../../libDaisy/src/hid/audio.h ****     /** Interleaving Audio Callback 
  89:../../libDaisy/src/hid/audio.h ****      * Interleaving audio callbacks in daisy must be of this type
  90:../../libDaisy/src/hid/audio.h ****      */
  91:../../libDaisy/src/hid/audio.h ****     typedef void (*InterleavingAudioCallback)(InterleavingInputBuffer  in,
  92:../../libDaisy/src/hid/audio.h ****                                               InterleavingOutputBuffer out,
  93:../../libDaisy/src/hid/audio.h ****                                               size_t                   size);
  94:../../libDaisy/src/hid/audio.h **** 
  95:../../libDaisy/src/hid/audio.h ****     AudioHandle() : pimpl_(nullptr) {}
  96:../../libDaisy/src/hid/audio.h ****     ~AudioHandle() {}
ARM GAS  C:\Users\galla\AppData\Local\Temp\ccPx7zrr.s 			page 10


  87              		.loc 7 96 5 is_stmt 1 view .LVU11
  88              		.loc 7 96 5 is_stmt 0 view .LVU12
  89              	.LBE361:
  90              		.loc 3 22 19 view .LVU13
  91 0000 7047     		bx	lr
  92              		.cfi_endproc
  93              	.LFE2555:
  95              		.weak	_ZN5daisy9DaisySeedD1Ev
  96              		.thumb_set _ZN5daisy9DaisySeedD1Ev,_ZN5daisy9DaisySeedD2Ev
  97 0002 00BF     		.section	.text._ZN7daisysp6ChorusD2Ev,"axG",%progbits,_ZN7daisysp6ChorusD5Ev,comdat
  98              		.align	1
  99              		.p2align 2,,3
 100              		.weak	_ZN7daisysp6ChorusD2Ev
 101              		.syntax unified
 102              		.thumb
 103              		.thumb_func
 104              		.fpu fpv5-d16
 106              	_ZN7daisysp6ChorusD2Ev:
 107              	.LVL2:
 108              	.LFB4374:
 109              		.file 8 "../../DaisySP/Source/Effects/chorus.h"
   1:../../DaisySP/Source/Effects/chorus.h **** /*
   2:../../DaisySP/Source/Effects/chorus.h **** Copyright (c) 2020 Electrosmith, Corp
   3:../../DaisySP/Source/Effects/chorus.h **** 
   4:../../DaisySP/Source/Effects/chorus.h **** Use of this source code is governed by an MIT-style
   5:../../DaisySP/Source/Effects/chorus.h **** license that can be found in the LICENSE file or at
   6:../../DaisySP/Source/Effects/chorus.h **** https://opensource.org/licenses/MIT.
   7:../../DaisySP/Source/Effects/chorus.h **** */
   8:../../DaisySP/Source/Effects/chorus.h **** 
   9:../../DaisySP/Source/Effects/chorus.h **** #pragma once
  10:../../DaisySP/Source/Effects/chorus.h **** #ifndef DSY_CHORUS_H
  11:../../DaisySP/Source/Effects/chorus.h **** #define DSY_CHORUS_H
  12:../../DaisySP/Source/Effects/chorus.h **** #ifdef __cplusplus
  13:../../DaisySP/Source/Effects/chorus.h **** 
  14:../../DaisySP/Source/Effects/chorus.h **** #include <stdint.h>
  15:../../DaisySP/Source/Effects/chorus.h **** #include "Utility/delayline.h"
  16:../../DaisySP/Source/Effects/chorus.h **** 
  17:../../DaisySP/Source/Effects/chorus.h **** /** @file chorus.h */
  18:../../DaisySP/Source/Effects/chorus.h **** 
  19:../../DaisySP/Source/Effects/chorus.h **** namespace daisysp
  20:../../DaisySP/Source/Effects/chorus.h **** {
  21:../../DaisySP/Source/Effects/chorus.h **** /**  
  22:../../DaisySP/Source/Effects/chorus.h ****     @brief Single Chorus engine. Used in Chorus.
  23:../../DaisySP/Source/Effects/chorus.h ****     @author Ben Sergentanis
  24:../../DaisySP/Source/Effects/chorus.h **** */
  25:../../DaisySP/Source/Effects/chorus.h **** class ChorusEngine
  26:../../DaisySP/Source/Effects/chorus.h **** {
  27:../../DaisySP/Source/Effects/chorus.h ****   public:
  28:../../DaisySP/Source/Effects/chorus.h ****     ChorusEngine() {}
  29:../../DaisySP/Source/Effects/chorus.h ****     ~ChorusEngine() {}
  30:../../DaisySP/Source/Effects/chorus.h **** 
  31:../../DaisySP/Source/Effects/chorus.h ****     /** Initialize the module
  32:../../DaisySP/Source/Effects/chorus.h ****         \param sample_rate Audio engine sample rate.
  33:../../DaisySP/Source/Effects/chorus.h ****     */
  34:../../DaisySP/Source/Effects/chorus.h ****     void Init(float sample_rate);
  35:../../DaisySP/Source/Effects/chorus.h **** 
  36:../../DaisySP/Source/Effects/chorus.h ****     /** Get the next sample
ARM GAS  C:\Users\galla\AppData\Local\Temp\ccPx7zrr.s 			page 11


  37:../../DaisySP/Source/Effects/chorus.h ****         \param in Sample to process
  38:../../DaisySP/Source/Effects/chorus.h ****     */
  39:../../DaisySP/Source/Effects/chorus.h ****     float Process(float in);
  40:../../DaisySP/Source/Effects/chorus.h **** 
  41:../../DaisySP/Source/Effects/chorus.h ****     /** How much to modulate the delay by.
  42:../../DaisySP/Source/Effects/chorus.h ****         \param depth Works 0-1.
  43:../../DaisySP/Source/Effects/chorus.h ****     */
  44:../../DaisySP/Source/Effects/chorus.h ****     void SetLfoDepth(float depth);
  45:../../DaisySP/Source/Effects/chorus.h **** 
  46:../../DaisySP/Source/Effects/chorus.h ****     /** Set lfo frequency.
  47:../../DaisySP/Source/Effects/chorus.h ****         \param freq Frequency in Hz
  48:../../DaisySP/Source/Effects/chorus.h ****     */
  49:../../DaisySP/Source/Effects/chorus.h ****     void SetLfoFreq(float freq);
  50:../../DaisySP/Source/Effects/chorus.h **** 
  51:../../DaisySP/Source/Effects/chorus.h ****     /** Set the internal delay rate. 
  52:../../DaisySP/Source/Effects/chorus.h ****         \param delay Tuned for 0-1. Maps to .1 to 50 ms.
  53:../../DaisySP/Source/Effects/chorus.h ****     */
  54:../../DaisySP/Source/Effects/chorus.h ****     void SetDelay(float delay);
  55:../../DaisySP/Source/Effects/chorus.h **** 
  56:../../DaisySP/Source/Effects/chorus.h ****     /** Set the delay time in ms.
  57:../../DaisySP/Source/Effects/chorus.h ****         \param ms Delay time in ms, 0 to 50 ms.
  58:../../DaisySP/Source/Effects/chorus.h ****     */
  59:../../DaisySP/Source/Effects/chorus.h ****     void SetDelayMs(float ms);
  60:../../DaisySP/Source/Effects/chorus.h **** 
  61:../../DaisySP/Source/Effects/chorus.h ****     /** Set the feedback amount.
  62:../../DaisySP/Source/Effects/chorus.h ****         \param feedback Amount from 0-1.
  63:../../DaisySP/Source/Effects/chorus.h ****     */
  64:../../DaisySP/Source/Effects/chorus.h ****     void SetFeedback(float feedback);
  65:../../DaisySP/Source/Effects/chorus.h **** 
  66:../../DaisySP/Source/Effects/chorus.h ****   private:
  67:../../DaisySP/Source/Effects/chorus.h ****     float                    sample_rate_;
  68:../../DaisySP/Source/Effects/chorus.h ****     static constexpr int32_t kDelayLength
  69:../../DaisySP/Source/Effects/chorus.h ****         = 2400; // 50 ms at 48kHz = .05 * 48000
  70:../../DaisySP/Source/Effects/chorus.h **** 
  71:../../DaisySP/Source/Effects/chorus.h ****     //triangle lfos
  72:../../DaisySP/Source/Effects/chorus.h ****     float lfo_phase_;
  73:../../DaisySP/Source/Effects/chorus.h ****     float lfo_freq_;
  74:../../DaisySP/Source/Effects/chorus.h ****     float lfo_amp_;
  75:../../DaisySP/Source/Effects/chorus.h **** 
  76:../../DaisySP/Source/Effects/chorus.h ****     float feedback_;
  77:../../DaisySP/Source/Effects/chorus.h **** 
  78:../../DaisySP/Source/Effects/chorus.h ****     float delay_;
  79:../../DaisySP/Source/Effects/chorus.h **** 
  80:../../DaisySP/Source/Effects/chorus.h ****     DelayLine<float, kDelayLength> del_;
  81:../../DaisySP/Source/Effects/chorus.h **** 
  82:../../DaisySP/Source/Effects/chorus.h ****     float ProcessLfo();
  83:../../DaisySP/Source/Effects/chorus.h **** };
  84:../../DaisySP/Source/Effects/chorus.h **** 
  85:../../DaisySP/Source/Effects/chorus.h **** //wraps up all of the chorus engines
  86:../../DaisySP/Source/Effects/chorus.h **** /**  
  87:../../DaisySP/Source/Effects/chorus.h ****     @brief Chorus Effect.
  88:../../DaisySP/Source/Effects/chorus.h ****     @author Ben Sergentanis
  89:../../DaisySP/Source/Effects/chorus.h ****     @date Jan 2021
  90:../../DaisySP/Source/Effects/chorus.h ****     Based on https://www.izotope.com/en/learn/understanding-chorus-flangers-and-phasers-in-audio-pr
  91:../../DaisySP/Source/Effects/chorus.h ****     and https://www.researchgate.net/publication/236629475_Implementing_Professional_Audio_Effects_
  92:../../DaisySP/Source/Effects/chorus.h **** */
  93:../../DaisySP/Source/Effects/chorus.h **** class Chorus
ARM GAS  C:\Users\galla\AppData\Local\Temp\ccPx7zrr.s 			page 12


  94:../../DaisySP/Source/Effects/chorus.h **** {
  95:../../DaisySP/Source/Effects/chorus.h ****   public:
  96:../../DaisySP/Source/Effects/chorus.h ****     Chorus() {}
  97:../../DaisySP/Source/Effects/chorus.h ****     ~Chorus() {}
 110              		.loc 8 97 5 is_stmt 1 view -0
 111              		.cfi_startproc
 112              		@ args = 0, pretend = 0, frame = 0
 113              		@ frame_needed = 0, uses_anonymous_args = 0
 114              		@ link register save eliminated.
 115              		.loc 8 97 16 is_stmt 0 view .LVU15
 116 0000 7047     		bx	lr
 117              		.cfi_endproc
 118              	.LFE4374:
 120              		.weak	_ZN7daisysp6ChorusD1Ev
 121              		.thumb_set _ZN7daisysp6ChorusD1Ev,_ZN7daisysp6ChorusD2Ev
 122              		.section	.text._ZN7daisysp6PhaserD2Ev,"axG",%progbits,_ZN7daisysp6PhaserD5Ev,comdat
 123              		.align	1
 124              		.p2align 2,,3
 125              		.weak	_ZN7daisysp6PhaserD2Ev
 126              		.syntax unified
 127              		.thumb
 128              		.thumb_func
 129              		.fpu fpv5-d16
 131              	_ZN7daisysp6PhaserD2Ev:
 132              	.LVL3:
 133              	.LFB4420:
 134              		.file 9 "../../DaisySP/Source/Effects/phaser.h"
   1:../../DaisySP/Source/Effects/phaser.h **** /*
   2:../../DaisySP/Source/Effects/phaser.h **** Copyright (c) 2020 Electrosmith, Corp
   3:../../DaisySP/Source/Effects/phaser.h **** 
   4:../../DaisySP/Source/Effects/phaser.h **** Use of this source code is governed by an MIT-style
   5:../../DaisySP/Source/Effects/phaser.h **** license that can be found in the LICENSE file or at
   6:../../DaisySP/Source/Effects/phaser.h **** https://opensource.org/licenses/MIT.
   7:../../DaisySP/Source/Effects/phaser.h **** */
   8:../../DaisySP/Source/Effects/phaser.h **** 
   9:../../DaisySP/Source/Effects/phaser.h **** #pragma once
  10:../../DaisySP/Source/Effects/phaser.h **** #ifndef DSY_PHASER_H
  11:../../DaisySP/Source/Effects/phaser.h **** #define DSY_PHASER_H
  12:../../DaisySP/Source/Effects/phaser.h **** #ifdef __cplusplus
  13:../../DaisySP/Source/Effects/phaser.h **** 
  14:../../DaisySP/Source/Effects/phaser.h **** #include <stdint.h>
  15:../../DaisySP/Source/Effects/phaser.h **** #include "Utility/delayline.h"
  16:../../DaisySP/Source/Effects/phaser.h **** 
  17:../../DaisySP/Source/Effects/phaser.h **** /** @file phaser.h */
  18:../../DaisySP/Source/Effects/phaser.h **** 
  19:../../DaisySP/Source/Effects/phaser.h **** namespace daisysp
  20:../../DaisySP/Source/Effects/phaser.h **** {
  21:../../DaisySP/Source/Effects/phaser.h **** /**  
  22:../../DaisySP/Source/Effects/phaser.h ****     @brief Single Phaser engine. Used in Phaser.
  23:../../DaisySP/Source/Effects/phaser.h ****     @author Ben Sergentanis
  24:../../DaisySP/Source/Effects/phaser.h **** */
  25:../../DaisySP/Source/Effects/phaser.h **** class PhaserEngine
  26:../../DaisySP/Source/Effects/phaser.h **** {
  27:../../DaisySP/Source/Effects/phaser.h ****   public:
  28:../../DaisySP/Source/Effects/phaser.h ****     PhaserEngine() {}
  29:../../DaisySP/Source/Effects/phaser.h ****     ~PhaserEngine() {}
  30:../../DaisySP/Source/Effects/phaser.h **** 
ARM GAS  C:\Users\galla\AppData\Local\Temp\ccPx7zrr.s 			page 13


  31:../../DaisySP/Source/Effects/phaser.h ****     /** Initialize the module
  32:../../DaisySP/Source/Effects/phaser.h ****         \param sample_rate Audio engine sample rate.
  33:../../DaisySP/Source/Effects/phaser.h ****     */
  34:../../DaisySP/Source/Effects/phaser.h ****     void Init(float sample_rate);
  35:../../DaisySP/Source/Effects/phaser.h **** 
  36:../../DaisySP/Source/Effects/phaser.h ****     /** Get the next sample
  37:../../DaisySP/Source/Effects/phaser.h ****         \param in Sample to process
  38:../../DaisySP/Source/Effects/phaser.h ****     */
  39:../../DaisySP/Source/Effects/phaser.h ****     float Process(float in);
  40:../../DaisySP/Source/Effects/phaser.h **** 
  41:../../DaisySP/Source/Effects/phaser.h ****     /** How much to modulate the allpass filter by.
  42:../../DaisySP/Source/Effects/phaser.h ****         \param depth Works 0-1.
  43:../../DaisySP/Source/Effects/phaser.h ****     */
  44:../../DaisySP/Source/Effects/phaser.h ****     void SetLfoDepth(float depth);
  45:../../DaisySP/Source/Effects/phaser.h **** 
  46:../../DaisySP/Source/Effects/phaser.h ****     /** Set lfo frequency.
  47:../../DaisySP/Source/Effects/phaser.h ****         \param lfo_freq Frequency in Hz
  48:../../DaisySP/Source/Effects/phaser.h ****     */
  49:../../DaisySP/Source/Effects/phaser.h ****     void SetLfoFreq(float lfo_freq);
  50:../../DaisySP/Source/Effects/phaser.h **** 
  51:../../DaisySP/Source/Effects/phaser.h ****     /** Set the allpass frequency
  52:../../DaisySP/Source/Effects/phaser.h ****         \param ap_freq Frequency in Hz.
  53:../../DaisySP/Source/Effects/phaser.h ****     */
  54:../../DaisySP/Source/Effects/phaser.h ****     void SetFreq(float ap_freq);
  55:../../DaisySP/Source/Effects/phaser.h **** 
  56:../../DaisySP/Source/Effects/phaser.h ****     /** Set the feedback amount.
  57:../../DaisySP/Source/Effects/phaser.h ****         \param feedback Amount from 0-1.
  58:../../DaisySP/Source/Effects/phaser.h ****     */
  59:../../DaisySP/Source/Effects/phaser.h ****     void SetFeedback(float feedback);
  60:../../DaisySP/Source/Effects/phaser.h **** 
  61:../../DaisySP/Source/Effects/phaser.h ****   private:
  62:../../DaisySP/Source/Effects/phaser.h ****     float                    sample_rate_;
  63:../../DaisySP/Source/Effects/phaser.h ****     static constexpr int32_t kDelayLength
  64:../../DaisySP/Source/Effects/phaser.h ****         = 2400; // 50 ms at 48kHz = .05 * 48000
  65:../../DaisySP/Source/Effects/phaser.h **** 
  66:../../DaisySP/Source/Effects/phaser.h ****     //triangle lfo
  67:../../DaisySP/Source/Effects/phaser.h ****     float lfo_phase_;
  68:../../DaisySP/Source/Effects/phaser.h ****     float lfo_freq_;
  69:../../DaisySP/Source/Effects/phaser.h ****     float lfo_amp_;
  70:../../DaisySP/Source/Effects/phaser.h **** 
  71:../../DaisySP/Source/Effects/phaser.h ****     float os_;
  72:../../DaisySP/Source/Effects/phaser.h **** 
  73:../../DaisySP/Source/Effects/phaser.h ****     float feedback_;
  74:../../DaisySP/Source/Effects/phaser.h ****     float ap_freq_;
  75:../../DaisySP/Source/Effects/phaser.h **** 
  76:../../DaisySP/Source/Effects/phaser.h ****     float deltime_;
  77:../../DaisySP/Source/Effects/phaser.h ****     float last_sample_;
  78:../../DaisySP/Source/Effects/phaser.h **** 
  79:../../DaisySP/Source/Effects/phaser.h ****     DelayLine<float, kDelayLength> del_;
  80:../../DaisySP/Source/Effects/phaser.h **** 
  81:../../DaisySP/Source/Effects/phaser.h ****     float ProcessLfo();
  82:../../DaisySP/Source/Effects/phaser.h **** };
  83:../../DaisySP/Source/Effects/phaser.h **** 
  84:../../DaisySP/Source/Effects/phaser.h **** //wraps up all of the phaser engines
  85:../../DaisySP/Source/Effects/phaser.h **** /**  
  86:../../DaisySP/Source/Effects/phaser.h ****     @brief Phaser Effect.
  87:../../DaisySP/Source/Effects/phaser.h ****     @author Ben Sergentanis
ARM GAS  C:\Users\galla\AppData\Local\Temp\ccPx7zrr.s 			page 14


  88:../../DaisySP/Source/Effects/phaser.h ****     @date Jan 2021
  89:../../DaisySP/Source/Effects/phaser.h **** */
  90:../../DaisySP/Source/Effects/phaser.h **** class Phaser
  91:../../DaisySP/Source/Effects/phaser.h **** {
  92:../../DaisySP/Source/Effects/phaser.h ****   public:
  93:../../DaisySP/Source/Effects/phaser.h ****     Phaser() {}
  94:../../DaisySP/Source/Effects/phaser.h ****     ~Phaser() {}
 135              		.loc 9 94 5 is_stmt 1 view -0
 136              		.cfi_startproc
 137              		@ args = 0, pretend = 0, frame = 0
 138              		@ frame_needed = 0, uses_anonymous_args = 0
 139              		@ link register save eliminated.
 140              		.loc 9 94 16 is_stmt 0 view .LVU17
 141 0000 7047     		bx	lr
 142              		.cfi_endproc
 143              	.LFE4420:
 145              		.weak	_ZN7daisysp6PhaserD1Ev
 146              		.thumb_set _ZN7daisysp6PhaserD1Ev,_ZN7daisysp6PhaserD2Ev
 147              		.section	.text._ZN7daisysp7TremoloD2Ev,"axG",%progbits,_ZN7daisysp7TremoloD5Ev,comdat
 148              		.align	1
 149              		.p2align 2,,3
 150              		.weak	_ZN7daisysp7TremoloD2Ev
 151              		.syntax unified
 152              		.thumb
 153              		.thumb_func
 154              		.fpu fpv5-d16
 156              	_ZN7daisysp7TremoloD2Ev:
 157              	.LVL4:
 158              	.LFB4432:
 159              		.file 10 "../../DaisySP/Source/Effects/tremolo.h"
   1:../../DaisySP/Source/Effects/tremolo.h **** /*
   2:../../DaisySP/Source/Effects/tremolo.h **** Copyright (c) 2020 Electrosmith, Corp
   3:../../DaisySP/Source/Effects/tremolo.h **** 
   4:../../DaisySP/Source/Effects/tremolo.h **** Use of this source code is governed by an MIT-style
   5:../../DaisySP/Source/Effects/tremolo.h **** license that can be found in the LICENSE file or at
   6:../../DaisySP/Source/Effects/tremolo.h **** https://opensource.org/licenses/MIT.
   7:../../DaisySP/Source/Effects/tremolo.h **** */
   8:../../DaisySP/Source/Effects/tremolo.h **** 
   9:../../DaisySP/Source/Effects/tremolo.h **** #pragma once
  10:../../DaisySP/Source/Effects/tremolo.h **** #ifndef DSY_TREMOLO_H
  11:../../DaisySP/Source/Effects/tremolo.h **** #define DSY_TREMOLO_H
  12:../../DaisySP/Source/Effects/tremolo.h **** 
  13:../../DaisySP/Source/Effects/tremolo.h **** #include <stdint.h>
  14:../../DaisySP/Source/Effects/tremolo.h **** #ifdef __cplusplus
  15:../../DaisySP/Source/Effects/tremolo.h **** 
  16:../../DaisySP/Source/Effects/tremolo.h **** #include <math.h>
  17:../../DaisySP/Source/Effects/tremolo.h **** #include "Synthesis/oscillator.h"
  18:../../DaisySP/Source/Effects/tremolo.h **** 
  19:../../DaisySP/Source/Effects/tremolo.h **** /** @file tremolo.h */
  20:../../DaisySP/Source/Effects/tremolo.h **** 
  21:../../DaisySP/Source/Effects/tremolo.h **** namespace daisysp
  22:../../DaisySP/Source/Effects/tremolo.h **** {
  23:../../DaisySP/Source/Effects/tremolo.h **** /**  
  24:../../DaisySP/Source/Effects/tremolo.h ****     @brief Tremolo effect.
  25:../../DaisySP/Source/Effects/tremolo.h ****     @author Ben Sergentanis
  26:../../DaisySP/Source/Effects/tremolo.h ****     @date Jan 2021
  27:../../DaisySP/Source/Effects/tremolo.h ****     Based on https://christianfloisand.wordpress.com/2012/04/18/coding-some-tremolo/ \n
ARM GAS  C:\Users\galla\AppData\Local\Temp\ccPx7zrr.s 			page 15


  28:../../DaisySP/Source/Effects/tremolo.h **** */
  29:../../DaisySP/Source/Effects/tremolo.h **** class Tremolo
  30:../../DaisySP/Source/Effects/tremolo.h **** {
  31:../../DaisySP/Source/Effects/tremolo.h ****   public:
  32:../../DaisySP/Source/Effects/tremolo.h ****     Tremolo() {}
  33:../../DaisySP/Source/Effects/tremolo.h ****     ~Tremolo() {}
 160              		.loc 10 33 5 is_stmt 1 view -0
 161              		.cfi_startproc
 162              		@ args = 0, pretend = 0, frame = 0
 163              		@ frame_needed = 0, uses_anonymous_args = 0
 164              		@ link register save eliminated.
 165              	.LBB362:
 166              	.LBI362:
 167              		.file 11 "../../DaisySP/Source/Synthesis/oscillator.h"
   1:../../DaisySP/Source/Synthesis/oscillator.h **** /*
   2:../../DaisySP/Source/Synthesis/oscillator.h **** Copyright (c) 2020 Electrosmith, Corp
   3:../../DaisySP/Source/Synthesis/oscillator.h **** 
   4:../../DaisySP/Source/Synthesis/oscillator.h **** Use of this source code is governed by an MIT-style
   5:../../DaisySP/Source/Synthesis/oscillator.h **** license that can be found in the LICENSE file or at
   6:../../DaisySP/Source/Synthesis/oscillator.h **** https://opensource.org/licenses/MIT.
   7:../../DaisySP/Source/Synthesis/oscillator.h **** */
   8:../../DaisySP/Source/Synthesis/oscillator.h **** 
   9:../../DaisySP/Source/Synthesis/oscillator.h **** #pragma once
  10:../../DaisySP/Source/Synthesis/oscillator.h **** #ifndef DSY_OSCILLATOR_H
  11:../../DaisySP/Source/Synthesis/oscillator.h **** #define DSY_OSCILLATOR_H
  12:../../DaisySP/Source/Synthesis/oscillator.h **** #include <stdint.h>
  13:../../DaisySP/Source/Synthesis/oscillator.h **** #include "Utility/dsp.h"
  14:../../DaisySP/Source/Synthesis/oscillator.h **** #ifdef __cplusplus
  15:../../DaisySP/Source/Synthesis/oscillator.h **** 
  16:../../DaisySP/Source/Synthesis/oscillator.h **** namespace daisysp
  17:../../DaisySP/Source/Synthesis/oscillator.h **** {
  18:../../DaisySP/Source/Synthesis/oscillator.h **** /** Synthesis of several waveforms, including polyBLEP bandlimited waveforms.
  19:../../DaisySP/Source/Synthesis/oscillator.h **** */
  20:../../DaisySP/Source/Synthesis/oscillator.h **** class Oscillator
  21:../../DaisySP/Source/Synthesis/oscillator.h **** {
  22:../../DaisySP/Source/Synthesis/oscillator.h ****   public:
  23:../../DaisySP/Source/Synthesis/oscillator.h ****     Oscillator() {}
  24:../../DaisySP/Source/Synthesis/oscillator.h ****     ~Oscillator() {}
 168              		.loc 11 24 5 view .LVU19
 169              		.loc 11 24 5 is_stmt 0 view .LVU20
 170              	.LBE362:
 171              		.loc 10 33 17 view .LVU21
 172 0000 7047     		bx	lr
 173              		.cfi_endproc
 174              	.LFE4432:
 176              		.weak	_ZN7daisysp7TremoloD1Ev
 177              		.thumb_set _ZN7daisysp7TremoloD1Ev,_ZN7daisysp7TremoloD2Ev
 178 0002 00BF     		.section	.text._ZN7daisysp7FlangerD2Ev,"axG",%progbits,_ZN7daisysp7FlangerD5Ev,comdat
 179              		.align	1
 180              		.p2align 2,,3
 181              		.weak	_ZN7daisysp7FlangerD2Ev
 182              		.syntax unified
 183              		.thumb
 184              		.thumb_func
 185              		.fpu fpv5-d16
 187              	_ZN7daisysp7FlangerD2Ev:
 188              	.LVL5:
ARM GAS  C:\Users\galla\AppData\Local\Temp\ccPx7zrr.s 			page 16


 189              	.LFB5490:
 190              		.file 12 "../../DaisySP/Source/Effects/flanger.h"
   1:../../DaisySP/Source/Effects/flanger.h **** /*
   2:../../DaisySP/Source/Effects/flanger.h **** Copyright (c) 2020 Electrosmith, Corp
   3:../../DaisySP/Source/Effects/flanger.h **** 
   4:../../DaisySP/Source/Effects/flanger.h **** Use of this source code is governed by an MIT-style
   5:../../DaisySP/Source/Effects/flanger.h **** license that can be found in the LICENSE file or at
   6:../../DaisySP/Source/Effects/flanger.h **** https://opensource.org/licenses/MIT.
   7:../../DaisySP/Source/Effects/flanger.h **** */
   8:../../DaisySP/Source/Effects/flanger.h **** 
   9:../../DaisySP/Source/Effects/flanger.h **** #pragma once
  10:../../DaisySP/Source/Effects/flanger.h **** #ifndef DSY_FLANGER_H
  11:../../DaisySP/Source/Effects/flanger.h **** #define DSY_FLANGER_H
  12:../../DaisySP/Source/Effects/flanger.h **** #ifdef __cplusplus
  13:../../DaisySP/Source/Effects/flanger.h **** 
  14:../../DaisySP/Source/Effects/flanger.h **** #include <stdint.h>
  15:../../DaisySP/Source/Effects/flanger.h **** #include "Utility/delayline.h"
  16:../../DaisySP/Source/Effects/flanger.h **** 
  17:../../DaisySP/Source/Effects/flanger.h **** /** @file flanger.h */
  18:../../DaisySP/Source/Effects/flanger.h **** 
  19:../../DaisySP/Source/Effects/flanger.h **** namespace daisysp
  20:../../DaisySP/Source/Effects/flanger.h **** {
  21:../../DaisySP/Source/Effects/flanger.h **** /** @brief Flanging Audio Effect 
  22:../../DaisySP/Source/Effects/flanger.h ****  *
  23:../../DaisySP/Source/Effects/flanger.h ****  * Generates a modulating phase shifted copy of a signal, and recombines
  24:../../DaisySP/Source/Effects/flanger.h ****  * with the original to create a 'flanging' sound effect.
  25:../../DaisySP/Source/Effects/flanger.h ****  */
  26:../../DaisySP/Source/Effects/flanger.h **** class Flanger
 191              		.loc 12 26 7 is_stmt 1 view -0
 192              		.cfi_startproc
 193              		@ args = 0, pretend = 0, frame = 0
 194              		@ frame_needed = 0, uses_anonymous_args = 0
 195              		@ link register save eliminated.
 196              	.LBB363:
 197              	.LBI363:
 198              		.file 13 "../../DaisySP/Source/Utility/delayline.h"
   1:../../DaisySP/Source/Utility/delayline.h **** /*
   2:../../DaisySP/Source/Utility/delayline.h **** Copyright (c) 2020 Electrosmith, Corp
   3:../../DaisySP/Source/Utility/delayline.h **** 
   4:../../DaisySP/Source/Utility/delayline.h **** Use of this source code is governed by an MIT-style
   5:../../DaisySP/Source/Utility/delayline.h **** license that can be found in the LICENSE file or at
   6:../../DaisySP/Source/Utility/delayline.h **** https://opensource.org/licenses/MIT.
   7:../../DaisySP/Source/Utility/delayline.h **** */
   8:../../DaisySP/Source/Utility/delayline.h **** 
   9:../../DaisySP/Source/Utility/delayline.h **** #pragma once
  10:../../DaisySP/Source/Utility/delayline.h **** #ifndef DSY_DELAY_H
  11:../../DaisySP/Source/Utility/delayline.h **** #define DSY_DELAY_H
  12:../../DaisySP/Source/Utility/delayline.h **** #include <stdlib.h>
  13:../../DaisySP/Source/Utility/delayline.h **** #include <stdint.h>
  14:../../DaisySP/Source/Utility/delayline.h **** namespace daisysp
  15:../../DaisySP/Source/Utility/delayline.h **** {
  16:../../DaisySP/Source/Utility/delayline.h **** /** Simple Delay line.
  17:../../DaisySP/Source/Utility/delayline.h **** November 2019
  18:../../DaisySP/Source/Utility/delayline.h **** 
  19:../../DaisySP/Source/Utility/delayline.h **** Converted to Template December 2019
  20:../../DaisySP/Source/Utility/delayline.h **** 
  21:../../DaisySP/Source/Utility/delayline.h **** declaration example: (1 second of floats)
ARM GAS  C:\Users\galla\AppData\Local\Temp\ccPx7zrr.s 			page 17


  22:../../DaisySP/Source/Utility/delayline.h **** 
  23:../../DaisySP/Source/Utility/delayline.h **** DelayLine<float, SAMPLE_RATE> del;
  24:../../DaisySP/Source/Utility/delayline.h **** 
  25:../../DaisySP/Source/Utility/delayline.h **** By: shensley
  26:../../DaisySP/Source/Utility/delayline.h **** */
  27:../../DaisySP/Source/Utility/delayline.h **** template <typename T, size_t max_size>
  28:../../DaisySP/Source/Utility/delayline.h **** class DelayLine
  29:../../DaisySP/Source/Utility/delayline.h **** {
  30:../../DaisySP/Source/Utility/delayline.h ****   public:
  31:../../DaisySP/Source/Utility/delayline.h ****     DelayLine() {}
  32:../../DaisySP/Source/Utility/delayline.h ****     ~DelayLine() {}
 199              		.loc 13 32 5 view .LVU23
 200              		.loc 13 32 5 is_stmt 0 view .LVU24
 201              	.LBE363:
 202              		.loc 12 26 7 view .LVU25
 203 0000 7047     		bx	lr
 204              		.cfi_endproc
 205              	.LFE5490:
 207              		.weak	_ZN7daisysp7FlangerD1Ev
 208              		.thumb_set _ZN7daisysp7FlangerD1Ev,_ZN7daisysp7FlangerD2Ev
 209 0002 00BF     		.section	.text._ZN7daisysp9DelayLineIfLj96000EED2Ev,"axG",%progbits,_ZN7daisysp9DelayLineIfLj96000
 210              		.align	1
 211              		.p2align 2,,3
 212              		.weak	_ZN7daisysp9DelayLineIfLj96000EED2Ev
 213              		.syntax unified
 214              		.thumb
 215              		.thumb_func
 216              		.fpu fpv5-d16
 218              	_ZN7daisysp9DelayLineIfLj96000EED2Ev:
 219              	.LVL6:
 220              	.LFB5493:
 221              		.loc 13 32 5 is_stmt 1 view -0
 222              		.cfi_startproc
 223              		@ args = 0, pretend = 0, frame = 0
 224              		@ frame_needed = 0, uses_anonymous_args = 0
 225              		@ link register save eliminated.
 226              		.loc 13 32 19 is_stmt 0 view .LVU27
 227 0000 7047     		bx	lr
 228              		.cfi_endproc
 229              	.LFE5493:
 231              		.weak	_ZN7daisysp9DelayLineIfLj96000EED1Ev
 232              		.thumb_set _ZN7daisysp9DelayLineIfLj96000EED1Ev,_ZN7daisysp9DelayLineIfLj96000EED2Ev
 233 0002 00BF     		.section	.text._ZN7daisysp12LadderFilterC2Ev,"axG",%progbits,_ZN7daisysp12LadderFilterC5Ev,comdat
 234              		.align	1
 235              		.p2align 2,,3
 236              		.weak	_ZN7daisysp12LadderFilterC2Ev
 237              		.syntax unified
 238              		.thumb
 239              		.thumb_func
 240              		.fpu fpv5-d16
 242              	_ZN7daisysp12LadderFilterC2Ev:
 243              	.LVL7:
 244              	.LFB4893:
 245              		.file 14 "../../DaisySP/Source/Filters/ladder.h"
   1:../../DaisySP/Source/Filters/ladder.h **** /* Ported from Audio Library for Teensy, Ladder Filter
   2:../../DaisySP/Source/Filters/ladder.h ****  * Copyright (c) 2021, Richard van Hoesel
   3:../../DaisySP/Source/Filters/ladder.h ****  * Copyright (c) 2024, Infrasonic Audio LLC
ARM GAS  C:\Users\galla\AppData\Local\Temp\ccPx7zrr.s 			page 18


   4:../../DaisySP/Source/Filters/ladder.h ****  *
   5:../../DaisySP/Source/Filters/ladder.h ****  * Permission is hereby granted, free of charge, to any person obtaining a copy
   6:../../DaisySP/Source/Filters/ladder.h ****  * of this software and associated documentation files (the "Software"), to deal
   7:../../DaisySP/Source/Filters/ladder.h ****  * in the Software without restriction, including without limitation the rights
   8:../../DaisySP/Source/Filters/ladder.h ****  * to use, copy, modify, merge, publish, distribute, sublicense, and/or sell
   9:../../DaisySP/Source/Filters/ladder.h ****  * copies of the Software, and to permit persons to whom the Software is
  10:../../DaisySP/Source/Filters/ladder.h ****  * furnished to do so, subject to the following conditions:
  11:../../DaisySP/Source/Filters/ladder.h ****  *
  12:../../DaisySP/Source/Filters/ladder.h ****  * The above copyright notice, development funding notice, and this permission
  13:../../DaisySP/Source/Filters/ladder.h ****  * notice shall be included in all copies or substantial portions of the Software.
  14:../../DaisySP/Source/Filters/ladder.h ****  *
  15:../../DaisySP/Source/Filters/ladder.h ****  * THE SOFTWARE IS PROVIDED "AS IS", WITHOUT WARRANTY OF ANY KIND, EXPRESS OR
  16:../../DaisySP/Source/Filters/ladder.h ****  * IMPLIED, INCLUDING BUT NOT LIMITED TO THE WARRANTIES OF MERCHANTABILITY,
  17:../../DaisySP/Source/Filters/ladder.h ****  * FITNESS FOR A PARTICULAR PURPOSE AND NONINFRINGEMENT. IN NO EVENT SHALL THE
  18:../../DaisySP/Source/Filters/ladder.h ****  * AUTHORS OR COPYRIGHT HOLDERS BE LIABLE FOR ANY CLAIM, DAMAGES OR OTHER
  19:../../DaisySP/Source/Filters/ladder.h ****  * LIABILITY, WHETHER IN AN ACTION OF CONTRACT, TORT OR OTHERWISE, ARISING FROM,
  20:../../DaisySP/Source/Filters/ladder.h ****  * OUT OF OR IN CONNECTION WITH THE SOFTWARE OR THE USE OR OTHER DEALINGS IN
  21:../../DaisySP/Source/Filters/ladder.h ****  * THE SOFTWARE.
  22:../../DaisySP/Source/Filters/ladder.h ****  */
  23:../../DaisySP/Source/Filters/ladder.h **** 
  24:../../DaisySP/Source/Filters/ladder.h **** //-----------------------------------------------------------
  25:../../DaisySP/Source/Filters/ladder.h **** // Huovilainen New Moog (HNM) model as per CMJ jun 2006
  26:../../DaisySP/Source/Filters/ladder.h **** // Richard van Hoesel, v. 1.03, Feb. 14 2021
  27:../../DaisySP/Source/Filters/ladder.h **** // v1.7 (Infrasonic/Daisy) add configurable filter mode
  28:../../DaisySP/Source/Filters/ladder.h **** // v1.6 (Infrasonic/Daisy) removes polyphase FIR, uses 4x linear
  29:../../DaisySP/Source/Filters/ladder.h **** //      oversampling for performance reasons
  30:../../DaisySP/Source/Filters/ladder.h **** // v1.5 adds polyphase FIR or Linear interpolation
  31:../../DaisySP/Source/Filters/ladder.h **** // v1.4 FC extended to 18.7kHz, max res to 1.8, 4x oversampling,
  32:../../DaisySP/Source/Filters/ladder.h **** //      and a minor Q-tuning adjustment
  33:../../DaisySP/Source/Filters/ladder.h **** // v.1.03 adds oversampling, extended resonance,
  34:../../DaisySP/Source/Filters/ladder.h **** // and exposes parameters input_drive and passband_gain
  35:../../DaisySP/Source/Filters/ladder.h **** // v.1.02 now includes both cutoff and resonance "CV" modulation inputs
  36:../../DaisySP/Source/Filters/ladder.h **** // please retain this header if you use this code.
  37:../../DaisySP/Source/Filters/ladder.h **** //-----------------------------------------------------------
  38:../../DaisySP/Source/Filters/ladder.h **** 
  39:../../DaisySP/Source/Filters/ladder.h **** #pragma once
  40:../../DaisySP/Source/Filters/ladder.h **** #ifndef DSY_LADDER_H
  41:../../DaisySP/Source/Filters/ladder.h **** #define DSY_LADDER_H
  42:../../DaisySP/Source/Filters/ladder.h **** 
  43:../../DaisySP/Source/Filters/ladder.h **** #include <stdlib.h>
  44:../../DaisySP/Source/Filters/ladder.h **** #include <stdint.h>
  45:../../DaisySP/Source/Filters/ladder.h **** #include <array>
  46:../../DaisySP/Source/Filters/ladder.h **** #ifdef __cplusplus
  47:../../DaisySP/Source/Filters/ladder.h **** 
  48:../../DaisySP/Source/Filters/ladder.h **** namespace daisysp
  49:../../DaisySP/Source/Filters/ladder.h **** {
  50:../../DaisySP/Source/Filters/ladder.h **** /**
  51:../../DaisySP/Source/Filters/ladder.h ****  * 4-pole ladder filter model with selectable filter type (LP/BP/HP 12 or 24 dB/oct),
  52:../../DaisySP/Source/Filters/ladder.h ****  * drive, passband gain compensation, and stable self-oscillation.
  53:../../DaisySP/Source/Filters/ladder.h ****  *
  54:../../DaisySP/Source/Filters/ladder.h ****  *
  55:../../DaisySP/Source/Filters/ladder.h ****  */
  56:../../DaisySP/Source/Filters/ladder.h **** class LadderFilter
  57:../../DaisySP/Source/Filters/ladder.h **** {
  58:../../DaisySP/Source/Filters/ladder.h ****   public:
  59:../../DaisySP/Source/Filters/ladder.h ****     enum class FilterMode
  60:../../DaisySP/Source/Filters/ladder.h ****     {
ARM GAS  C:\Users\galla\AppData\Local\Temp\ccPx7zrr.s 			page 19


  61:../../DaisySP/Source/Filters/ladder.h ****         LP24,
  62:../../DaisySP/Source/Filters/ladder.h ****         LP12,
  63:../../DaisySP/Source/Filters/ladder.h ****         BP24,
  64:../../DaisySP/Source/Filters/ladder.h ****         BP12,
  65:../../DaisySP/Source/Filters/ladder.h ****         HP24,
  66:../../DaisySP/Source/Filters/ladder.h ****         HP12
  67:../../DaisySP/Source/Filters/ladder.h ****     };
  68:../../DaisySP/Source/Filters/ladder.h **** 
  69:../../DaisySP/Source/Filters/ladder.h ****     LadderFilter()  = default;
 246              		.loc 14 69 5 is_stmt 1 view -0
 247              		.cfi_startproc
 248              		@ args = 0, pretend = 0, frame = 0
 249              		@ frame_needed = 0, uses_anonymous_args = 0
 250              		@ link register save eliminated.
 251              	.LBB364:
 252              		.loc 14 69 5 is_stmt 0 view .LVU29
 253 0000 0023     		movs	r3, #0
 254 0002 C0E90333 		strd	r3, r3, [r0, #12]
 255 0006 C0E90533 		strd	r3, r3, [r0, #20]
 256 000a C0E90733 		strd	r3, r3, [r0, #28]
 257 000e C0E90933 		strd	r3, r3, [r0, #36]
 258 0012 C0E90B33 		strd	r3, r3, [r0, #44]
 259 0016 C0E90D33 		strd	r3, r3, [r0, #52]
 260              	.LBE364:
 261 001a 7047     		bx	lr
 262              		.cfi_endproc
 263              	.LFE4893:
 265              		.weak	_ZN7daisysp12LadderFilterC1Ev
 266              		.thumb_set _ZN7daisysp12LadderFilterC1Ev,_ZN7daisysp12LadderFilterC2Ev
 267              		.section	.text._Z7distortffff,"ax",%progbits
 268              		.align	1
 269              		.p2align 2,,3
 270              		.global	_Z7distortffff
 271              		.syntax unified
 272              		.thumb
 273              		.thumb_func
 274              		.fpu fpv5-d16
 276              	_Z7distortffff:
 277              	.LVL8:
 278              	.LFB4896:
 279              		.file 15 "Blink.cpp"
   1:Blink.cpp     **** // didn't want to have this in one large file, but it would not flash when split into different hea
   2:Blink.cpp     **** #include "daisy_seed.h"
   3:Blink.cpp     **** #include "daisysp.h"
   4:Blink.cpp     **** 
   5:Blink.cpp     **** using namespace daisy;
   6:Blink.cpp     **** using namespace daisysp;
   7:Blink.cpp     **** 
   8:Blink.cpp     **** 
   9:Blink.cpp     **** #define MAX_DELAY static_cast<size_t>(48000 * 2.f)
  10:Blink.cpp     **** 
  11:Blink.cpp     **** void transmitData();
  12:Blink.cpp     **** void transmitData2();
  13:Blink.cpp     **** 
  14:Blink.cpp     **** DaisySeed  hw;
  15:Blink.cpp     **** UartHandler uart;
  16:Blink.cpp     **** Encoder encoder;
ARM GAS  C:\Users\galla\AppData\Local\Temp\ccPx7zrr.s 			page 20


  17:Blink.cpp     **** 
  18:Blink.cpp     **** Chorus ch;
  19:Blink.cpp     **** float p1chFreq, p1chDepth, p1chDelay, p2chFreq, p2chDepth, p2chDelay, p3chFreq, p3chDepth, p3chDela
  20:Blink.cpp     **** Flanger fl;
  21:Blink.cpp     **** float p1flFreq, p1flDepth, p1flDelay, p2flFreq, p2flDepth, p2flDelay, p3flFreq, p3flDepth, p3flDela
  22:Blink.cpp     **** LadderFilter wahflt, hp, lp;
  23:Blink.cpp     **** Tremolo trem;
  24:Blink.cpp     **** float p1tremFreq, p1tremDepth, p2tremFreq, p2tremDepth, p3tremFreq, p3tremDepth;
  25:Blink.cpp     **** Phaser ph;
  26:Blink.cpp     **** float p1phFreq, p1phdepth, p2phFreq, p2phdepth, p3phFreq, p3phdepth;
  27:Blink.cpp     **** //drive 
  28:Blink.cpp     **** float p1dingain, p1doutgain, p1dtone, p2dingain, p2doutgain, p2dtone, p3dingain, p3doutgain, p3dton
  29:Blink.cpp     **** //fuzz
  30:Blink.cpp     **** float p1fingain, p1fuzz, p1ftone, p2fingain, p2fuzz, p2ftone, p3fingain, p3fuzz, p3ftone;
  31:Blink.cpp     **** 
  32:Blink.cpp     **** 
  33:Blink.cpp     **** 
  34:Blink.cpp     **** 
  35:Blink.cpp     **** uint8_t start = 190;//transmission start bytes
  36:Blink.cpp     **** uint8_t start2 = 191;//also identifies what data is coming over
  37:Blink.cpp     **** 
  38:Blink.cpp     **** float knob1, knob2, knob3, wah;
  39:Blink.cpp     **** 
  40:Blink.cpp     **** uint8_t profile = 0;
  41:Blink.cpp     **** 
  42:Blink.cpp     **** 
  43:Blink.cpp     **** uint8_t effectCount = 0;//which effect we are currently on
  44:Blink.cpp     **** 
  45:Blink.cpp     **** uint8_t profile1[3] = {9, 9, 9};//9 is no effect
  46:Blink.cpp     **** uint8_t p1Size = 0;
  47:Blink.cpp     **** uint8_t profile2[3] = {9, 9, 9};
  48:Blink.cpp     **** uint8_t p2Size = 0;
  49:Blink.cpp     **** uint8_t profile3[3] = {9, 9, 9};
  50:Blink.cpp     **** uint8_t p3Size = 0;
  51:Blink.cpp     **** 
  52:Blink.cpp     **** uint8_t errorFlag = 0;
  53:Blink.cpp     **** uint8_t configuring = 0;
  54:Blink.cpp     **** 
  55:Blink.cpp     **** 
  56:Blink.cpp     **** DelayLine<float, MAX_DELAY> DSY_SDRAM_BSS delMem1, delMem2, delMem3;
  57:Blink.cpp     **** 
  58:Blink.cpp     **** struct delay
  59:Blink.cpp     **** {
  60:Blink.cpp     ****     DelayLine<float, MAX_DELAY> *del;
  61:Blink.cpp     ****     float                        currentDelay;
  62:Blink.cpp     ****     float                        delayTarget;
  63:Blink.cpp     ****     float                        feedback;
  64:Blink.cpp     **** 
  65:Blink.cpp     ****     float Process(float in)
  66:Blink.cpp     ****     {
  67:Blink.cpp     ****         //set delay times
  68:Blink.cpp     ****         fonepole(currentDelay, delayTarget, .0002f);//low pass the pot data to smooth it out
  69:Blink.cpp     ****         del->SetDelay(currentDelay);
  70:Blink.cpp     **** 
  71:Blink.cpp     ****         float read = del->Read();
  72:Blink.cpp     ****         del->Write((feedback * read) + in);
  73:Blink.cpp     **** 
ARM GAS  C:\Users\galla\AppData\Local\Temp\ccPx7zrr.s 			page 21


  74:Blink.cpp     ****         return read;
  75:Blink.cpp     ****     }
  76:Blink.cpp     **** };
  77:Blink.cpp     **** delay del1, del2, del3;
  78:Blink.cpp     **** 
  79:Blink.cpp     **** float distort(float in, float inGain, float outGain,float tone){
 280              		.loc 15 79 64 is_stmt 1 view -0
 281              		.cfi_startproc
 282              		@ args = 0, pretend = 0, frame = 0
 283              		@ frame_needed = 0, uses_anonymous_args = 0
  80:Blink.cpp     ****     float x = in*(1+inGain*14);
 284              		.loc 15 80 5 view .LVU31
  79:Blink.cpp     ****     float x = in*(1+inGain*14);
 285              		.loc 15 79 64 is_stmt 0 view .LVU32
 286 0000 38B5     		push	{r3, r4, r5, lr}
 287              		.cfi_def_cfa_offset 16
 288              		.cfi_offset 3, -16
 289              		.cfi_offset 4, -12
 290              		.cfi_offset 5, -8
 291              		.cfi_offset 14, -4
 292 0002 2DED068B 		vpush.64	{d8, d9, d10}
 293              		.cfi_def_cfa_offset 40
 294              		.cfi_offset 80, -40
 295              		.cfi_offset 81, -36
 296              		.cfi_offset 82, -32
 297              		.cfi_offset 83, -28
 298              		.cfi_offset 84, -24
 299              		.cfi_offset 85, -20
 300              		.loc 15 80 20 view .LVU33
 301 0006 F7EE008A 		vmov.f32	s17, #1.0e+0
  81:Blink.cpp     ****     float term1, term2, term3;
  82:Blink.cpp     ****     term1 = exp(x);
  83:Blink.cpp     ****     term2 = exp(-x);
  84:Blink.cpp     ****     term3 = exp(-x*1.2);
  85:Blink.cpp     ****     float value = (term1-term3)/(term1+term2);
  86:Blink.cpp     ****     x = value;
  87:Blink.cpp     ****     float intone = abs(tone-1);
  88:Blink.cpp     ****     hp.SetFreq(100+(intone*100));
 302              		.loc 15 88 15 view .LVU34
 303 000a 294C     		ldr	r4, .L12+8
  80:Blink.cpp     ****     float term1, term2, term3;
 304              		.loc 15 80 20 view .LVU35
 305 000c B2EE0C7A 		vmov.f32	s14, #1.4e+1
  89:Blink.cpp     ****     lp.SetFreq((15000*tone)+200);
 306              		.loc 15 89 15 view .LVU36
 307 0010 284D     		ldr	r5, .L12+12
  79:Blink.cpp     ****     float x = in*(1+inGain*14);
 308              		.loc 15 79 64 view .LVU37
 309 0012 F0EE619A 		vmov.f32	s19, s3
  80:Blink.cpp     ****     float term1, term2, term3;
 310              		.loc 15 80 20 view .LVU38
 311 0016 F0EE687A 		vmov.f32	s15, s17
  79:Blink.cpp     ****     float x = in*(1+inGain*14);
 312              		.loc 15 79 64 view .LVU39
 313 001a B0EE41AA 		vmov.f32	s20, s2
  80:Blink.cpp     ****     float term1, term2, term3;
 314              		.loc 15 80 20 view .LVU40
ARM GAS  C:\Users\galla\AppData\Local\Temp\ccPx7zrr.s 			page 22


 315 001e E0EE877A 		vfma.f32	s15, s1, s14
  80:Blink.cpp     ****     float term1, term2, term3;
 316              		.loc 15 80 11 view .LVU41
 317 0022 27EE800A 		vmul.f32	s0, s15, s0
 318              	.LVL9:
  81:Blink.cpp     ****     term1 = exp(x);
 319              		.loc 15 81 5 is_stmt 1 view .LVU42
  82:Blink.cpp     ****     term2 = exp(-x);
 320              		.loc 15 82 5 view .LVU43
 321              	.LBB365:
 322              	.LBI365:
 323              		.file 16 "c:\\program files\\daisytoolchain\\arm-none-eabi\\include\\c++\\10.2.1\\cmath"
   1:c:\program files\daisytoolchain\arm-none-eabi\include\c++\10.2.1\cmath **** // -*- C++ -*- C forwarding header.
   2:c:\program files\daisytoolchain\arm-none-eabi\include\c++\10.2.1\cmath **** 
   3:c:\program files\daisytoolchain\arm-none-eabi\include\c++\10.2.1\cmath **** // Copyright (C) 1997-2020 Free Software Foundation, Inc.
   4:c:\program files\daisytoolchain\arm-none-eabi\include\c++\10.2.1\cmath **** //
   5:c:\program files\daisytoolchain\arm-none-eabi\include\c++\10.2.1\cmath **** // This file is part of the GNU ISO C++ Library.  This library is free
   6:c:\program files\daisytoolchain\arm-none-eabi\include\c++\10.2.1\cmath **** // software; you can redistribute it and/or modify it under the
   7:c:\program files\daisytoolchain\arm-none-eabi\include\c++\10.2.1\cmath **** // terms of the GNU General Public License as published by the
   8:c:\program files\daisytoolchain\arm-none-eabi\include\c++\10.2.1\cmath **** // Free Software Foundation; either version 3, or (at your option)
   9:c:\program files\daisytoolchain\arm-none-eabi\include\c++\10.2.1\cmath **** // any later version.
  10:c:\program files\daisytoolchain\arm-none-eabi\include\c++\10.2.1\cmath **** 
  11:c:\program files\daisytoolchain\arm-none-eabi\include\c++\10.2.1\cmath **** // This library is distributed in the hope that it will be useful,
  12:c:\program files\daisytoolchain\arm-none-eabi\include\c++\10.2.1\cmath **** // but WITHOUT ANY WARRANTY; without even the implied warranty of
  13:c:\program files\daisytoolchain\arm-none-eabi\include\c++\10.2.1\cmath **** // MERCHANTABILITY or FITNESS FOR A PARTICULAR PURPOSE.  See the
  14:c:\program files\daisytoolchain\arm-none-eabi\include\c++\10.2.1\cmath **** // GNU General Public License for more details.
  15:c:\program files\daisytoolchain\arm-none-eabi\include\c++\10.2.1\cmath **** 
  16:c:\program files\daisytoolchain\arm-none-eabi\include\c++\10.2.1\cmath **** // Under Section 7 of GPL version 3, you are granted additional
  17:c:\program files\daisytoolchain\arm-none-eabi\include\c++\10.2.1\cmath **** // permissions described in the GCC Runtime Library Exception, version
  18:c:\program files\daisytoolchain\arm-none-eabi\include\c++\10.2.1\cmath **** // 3.1, as published by the Free Software Foundation.
  19:c:\program files\daisytoolchain\arm-none-eabi\include\c++\10.2.1\cmath **** 
  20:c:\program files\daisytoolchain\arm-none-eabi\include\c++\10.2.1\cmath **** // You should have received a copy of the GNU General Public License and
  21:c:\program files\daisytoolchain\arm-none-eabi\include\c++\10.2.1\cmath **** // a copy of the GCC Runtime Library Exception along with this program;
  22:c:\program files\daisytoolchain\arm-none-eabi\include\c++\10.2.1\cmath **** // see the files COPYING3 and COPYING.RUNTIME respectively.  If not, see
  23:c:\program files\daisytoolchain\arm-none-eabi\include\c++\10.2.1\cmath **** // <http://www.gnu.org/licenses/>.
  24:c:\program files\daisytoolchain\arm-none-eabi\include\c++\10.2.1\cmath **** 
  25:c:\program files\daisytoolchain\arm-none-eabi\include\c++\10.2.1\cmath **** /** @file include/cmath
  26:c:\program files\daisytoolchain\arm-none-eabi\include\c++\10.2.1\cmath ****  *  This is a Standard C++ Library file.  You should @c \#include this file
  27:c:\program files\daisytoolchain\arm-none-eabi\include\c++\10.2.1\cmath ****  *  in your programs, rather than any of the @a *.h implementation files.
  28:c:\program files\daisytoolchain\arm-none-eabi\include\c++\10.2.1\cmath ****  *
  29:c:\program files\daisytoolchain\arm-none-eabi\include\c++\10.2.1\cmath ****  *  This is the C++ version of the Standard C Library header @c math.h,
  30:c:\program files\daisytoolchain\arm-none-eabi\include\c++\10.2.1\cmath ****  *  and its contents are (mostly) the same as that header, but are all
  31:c:\program files\daisytoolchain\arm-none-eabi\include\c++\10.2.1\cmath ****  *  contained in the namespace @c std (except for names which are defined
  32:c:\program files\daisytoolchain\arm-none-eabi\include\c++\10.2.1\cmath ****  *  as macros in C).
  33:c:\program files\daisytoolchain\arm-none-eabi\include\c++\10.2.1\cmath ****  */
  34:c:\program files\daisytoolchain\arm-none-eabi\include\c++\10.2.1\cmath **** 
  35:c:\program files\daisytoolchain\arm-none-eabi\include\c++\10.2.1\cmath **** //
  36:c:\program files\daisytoolchain\arm-none-eabi\include\c++\10.2.1\cmath **** // ISO C++ 14882: 26.5  C library
  37:c:\program files\daisytoolchain\arm-none-eabi\include\c++\10.2.1\cmath **** //
  38:c:\program files\daisytoolchain\arm-none-eabi\include\c++\10.2.1\cmath **** 
  39:c:\program files\daisytoolchain\arm-none-eabi\include\c++\10.2.1\cmath **** #pragma GCC system_header
  40:c:\program files\daisytoolchain\arm-none-eabi\include\c++\10.2.1\cmath **** 
  41:c:\program files\daisytoolchain\arm-none-eabi\include\c++\10.2.1\cmath **** #include <bits/c++config.h>
  42:c:\program files\daisytoolchain\arm-none-eabi\include\c++\10.2.1\cmath **** #include <bits/cpp_type_traits.h>
  43:c:\program files\daisytoolchain\arm-none-eabi\include\c++\10.2.1\cmath **** #include <ext/type_traits.h>
  44:c:\program files\daisytoolchain\arm-none-eabi\include\c++\10.2.1\cmath **** #define _GLIBCXX_INCLUDE_NEXT_C_HEADERS
  45:c:\program files\daisytoolchain\arm-none-eabi\include\c++\10.2.1\cmath **** #include_next <math.h>
ARM GAS  C:\Users\galla\AppData\Local\Temp\ccPx7zrr.s 			page 23


  46:c:\program files\daisytoolchain\arm-none-eabi\include\c++\10.2.1\cmath **** #undef _GLIBCXX_INCLUDE_NEXT_C_HEADERS
  47:c:\program files\daisytoolchain\arm-none-eabi\include\c++\10.2.1\cmath **** #include <bits/std_abs.h>
  48:c:\program files\daisytoolchain\arm-none-eabi\include\c++\10.2.1\cmath **** 
  49:c:\program files\daisytoolchain\arm-none-eabi\include\c++\10.2.1\cmath **** #ifndef _GLIBCXX_CMATH
  50:c:\program files\daisytoolchain\arm-none-eabi\include\c++\10.2.1\cmath **** #define _GLIBCXX_CMATH 1
  51:c:\program files\daisytoolchain\arm-none-eabi\include\c++\10.2.1\cmath **** 
  52:c:\program files\daisytoolchain\arm-none-eabi\include\c++\10.2.1\cmath **** // Get rid of those macros defined in <math.h> in lieu of real functions.
  53:c:\program files\daisytoolchain\arm-none-eabi\include\c++\10.2.1\cmath **** #undef div
  54:c:\program files\daisytoolchain\arm-none-eabi\include\c++\10.2.1\cmath **** #undef acos
  55:c:\program files\daisytoolchain\arm-none-eabi\include\c++\10.2.1\cmath **** #undef asin
  56:c:\program files\daisytoolchain\arm-none-eabi\include\c++\10.2.1\cmath **** #undef atan
  57:c:\program files\daisytoolchain\arm-none-eabi\include\c++\10.2.1\cmath **** #undef atan2
  58:c:\program files\daisytoolchain\arm-none-eabi\include\c++\10.2.1\cmath **** #undef ceil
  59:c:\program files\daisytoolchain\arm-none-eabi\include\c++\10.2.1\cmath **** #undef cos
  60:c:\program files\daisytoolchain\arm-none-eabi\include\c++\10.2.1\cmath **** #undef cosh
  61:c:\program files\daisytoolchain\arm-none-eabi\include\c++\10.2.1\cmath **** #undef exp
  62:c:\program files\daisytoolchain\arm-none-eabi\include\c++\10.2.1\cmath **** #undef fabs
  63:c:\program files\daisytoolchain\arm-none-eabi\include\c++\10.2.1\cmath **** #undef floor
  64:c:\program files\daisytoolchain\arm-none-eabi\include\c++\10.2.1\cmath **** #undef fmod
  65:c:\program files\daisytoolchain\arm-none-eabi\include\c++\10.2.1\cmath **** #undef frexp
  66:c:\program files\daisytoolchain\arm-none-eabi\include\c++\10.2.1\cmath **** #undef ldexp
  67:c:\program files\daisytoolchain\arm-none-eabi\include\c++\10.2.1\cmath **** #undef log
  68:c:\program files\daisytoolchain\arm-none-eabi\include\c++\10.2.1\cmath **** #undef log10
  69:c:\program files\daisytoolchain\arm-none-eabi\include\c++\10.2.1\cmath **** #undef modf
  70:c:\program files\daisytoolchain\arm-none-eabi\include\c++\10.2.1\cmath **** #undef pow
  71:c:\program files\daisytoolchain\arm-none-eabi\include\c++\10.2.1\cmath **** #undef sin
  72:c:\program files\daisytoolchain\arm-none-eabi\include\c++\10.2.1\cmath **** #undef sinh
  73:c:\program files\daisytoolchain\arm-none-eabi\include\c++\10.2.1\cmath **** #undef sqrt
  74:c:\program files\daisytoolchain\arm-none-eabi\include\c++\10.2.1\cmath **** #undef tan
  75:c:\program files\daisytoolchain\arm-none-eabi\include\c++\10.2.1\cmath **** #undef tanh
  76:c:\program files\daisytoolchain\arm-none-eabi\include\c++\10.2.1\cmath **** 
  77:c:\program files\daisytoolchain\arm-none-eabi\include\c++\10.2.1\cmath **** extern "C++"
  78:c:\program files\daisytoolchain\arm-none-eabi\include\c++\10.2.1\cmath **** {
  79:c:\program files\daisytoolchain\arm-none-eabi\include\c++\10.2.1\cmath **** namespace std _GLIBCXX_VISIBILITY(default)
  80:c:\program files\daisytoolchain\arm-none-eabi\include\c++\10.2.1\cmath **** {
  81:c:\program files\daisytoolchain\arm-none-eabi\include\c++\10.2.1\cmath **** _GLIBCXX_BEGIN_NAMESPACE_VERSION
  82:c:\program files\daisytoolchain\arm-none-eabi\include\c++\10.2.1\cmath **** 
  83:c:\program files\daisytoolchain\arm-none-eabi\include\c++\10.2.1\cmath ****   using ::acos;
  84:c:\program files\daisytoolchain\arm-none-eabi\include\c++\10.2.1\cmath **** 
  85:c:\program files\daisytoolchain\arm-none-eabi\include\c++\10.2.1\cmath **** #ifndef __CORRECT_ISO_CPP_MATH_H_PROTO
  86:c:\program files\daisytoolchain\arm-none-eabi\include\c++\10.2.1\cmath ****   inline _GLIBCXX_CONSTEXPR float
  87:c:\program files\daisytoolchain\arm-none-eabi\include\c++\10.2.1\cmath ****   acos(float __x)
  88:c:\program files\daisytoolchain\arm-none-eabi\include\c++\10.2.1\cmath ****   { return __builtin_acosf(__x); }
  89:c:\program files\daisytoolchain\arm-none-eabi\include\c++\10.2.1\cmath **** 
  90:c:\program files\daisytoolchain\arm-none-eabi\include\c++\10.2.1\cmath ****   inline _GLIBCXX_CONSTEXPR long double
  91:c:\program files\daisytoolchain\arm-none-eabi\include\c++\10.2.1\cmath ****   acos(long double __x)
  92:c:\program files\daisytoolchain\arm-none-eabi\include\c++\10.2.1\cmath ****   { return __builtin_acosl(__x); }
  93:c:\program files\daisytoolchain\arm-none-eabi\include\c++\10.2.1\cmath **** #endif
  94:c:\program files\daisytoolchain\arm-none-eabi\include\c++\10.2.1\cmath **** 
  95:c:\program files\daisytoolchain\arm-none-eabi\include\c++\10.2.1\cmath ****   template<typename _Tp>
  96:c:\program files\daisytoolchain\arm-none-eabi\include\c++\10.2.1\cmath ****     inline _GLIBCXX_CONSTEXPR
  97:c:\program files\daisytoolchain\arm-none-eabi\include\c++\10.2.1\cmath ****     typename __gnu_cxx::__enable_if<__is_integer<_Tp>::__value, 
  98:c:\program files\daisytoolchain\arm-none-eabi\include\c++\10.2.1\cmath ****                                     double>::__type
  99:c:\program files\daisytoolchain\arm-none-eabi\include\c++\10.2.1\cmath ****     acos(_Tp __x)
 100:c:\program files\daisytoolchain\arm-none-eabi\include\c++\10.2.1\cmath ****     { return __builtin_acos(__x); }
 101:c:\program files\daisytoolchain\arm-none-eabi\include\c++\10.2.1\cmath **** 
 102:c:\program files\daisytoolchain\arm-none-eabi\include\c++\10.2.1\cmath ****   using ::asin;
ARM GAS  C:\Users\galla\AppData\Local\Temp\ccPx7zrr.s 			page 24


 103:c:\program files\daisytoolchain\arm-none-eabi\include\c++\10.2.1\cmath **** 
 104:c:\program files\daisytoolchain\arm-none-eabi\include\c++\10.2.1\cmath **** #ifndef __CORRECT_ISO_CPP_MATH_H_PROTO
 105:c:\program files\daisytoolchain\arm-none-eabi\include\c++\10.2.1\cmath ****   inline _GLIBCXX_CONSTEXPR float
 106:c:\program files\daisytoolchain\arm-none-eabi\include\c++\10.2.1\cmath ****   asin(float __x)
 107:c:\program files\daisytoolchain\arm-none-eabi\include\c++\10.2.1\cmath ****   { return __builtin_asinf(__x); }
 108:c:\program files\daisytoolchain\arm-none-eabi\include\c++\10.2.1\cmath **** 
 109:c:\program files\daisytoolchain\arm-none-eabi\include\c++\10.2.1\cmath ****   inline _GLIBCXX_CONSTEXPR long double
 110:c:\program files\daisytoolchain\arm-none-eabi\include\c++\10.2.1\cmath ****   asin(long double __x)
 111:c:\program files\daisytoolchain\arm-none-eabi\include\c++\10.2.1\cmath ****   { return __builtin_asinl(__x); }
 112:c:\program files\daisytoolchain\arm-none-eabi\include\c++\10.2.1\cmath **** #endif
 113:c:\program files\daisytoolchain\arm-none-eabi\include\c++\10.2.1\cmath **** 
 114:c:\program files\daisytoolchain\arm-none-eabi\include\c++\10.2.1\cmath ****   template<typename _Tp>
 115:c:\program files\daisytoolchain\arm-none-eabi\include\c++\10.2.1\cmath ****     inline _GLIBCXX_CONSTEXPR
 116:c:\program files\daisytoolchain\arm-none-eabi\include\c++\10.2.1\cmath ****     typename __gnu_cxx::__enable_if<__is_integer<_Tp>::__value,
 117:c:\program files\daisytoolchain\arm-none-eabi\include\c++\10.2.1\cmath ****                                     double>::__type
 118:c:\program files\daisytoolchain\arm-none-eabi\include\c++\10.2.1\cmath ****     asin(_Tp __x)
 119:c:\program files\daisytoolchain\arm-none-eabi\include\c++\10.2.1\cmath ****     { return __builtin_asin(__x); }
 120:c:\program files\daisytoolchain\arm-none-eabi\include\c++\10.2.1\cmath **** 
 121:c:\program files\daisytoolchain\arm-none-eabi\include\c++\10.2.1\cmath ****   using ::atan;
 122:c:\program files\daisytoolchain\arm-none-eabi\include\c++\10.2.1\cmath **** 
 123:c:\program files\daisytoolchain\arm-none-eabi\include\c++\10.2.1\cmath **** #ifndef __CORRECT_ISO_CPP_MATH_H_PROTO
 124:c:\program files\daisytoolchain\arm-none-eabi\include\c++\10.2.1\cmath ****   inline _GLIBCXX_CONSTEXPR float
 125:c:\program files\daisytoolchain\arm-none-eabi\include\c++\10.2.1\cmath ****   atan(float __x)
 126:c:\program files\daisytoolchain\arm-none-eabi\include\c++\10.2.1\cmath ****   { return __builtin_atanf(__x); }
 127:c:\program files\daisytoolchain\arm-none-eabi\include\c++\10.2.1\cmath **** 
 128:c:\program files\daisytoolchain\arm-none-eabi\include\c++\10.2.1\cmath ****   inline _GLIBCXX_CONSTEXPR long double
 129:c:\program files\daisytoolchain\arm-none-eabi\include\c++\10.2.1\cmath ****   atan(long double __x)
 130:c:\program files\daisytoolchain\arm-none-eabi\include\c++\10.2.1\cmath ****   { return __builtin_atanl(__x); }
 131:c:\program files\daisytoolchain\arm-none-eabi\include\c++\10.2.1\cmath **** #endif
 132:c:\program files\daisytoolchain\arm-none-eabi\include\c++\10.2.1\cmath **** 
 133:c:\program files\daisytoolchain\arm-none-eabi\include\c++\10.2.1\cmath ****   template<typename _Tp>
 134:c:\program files\daisytoolchain\arm-none-eabi\include\c++\10.2.1\cmath ****     inline _GLIBCXX_CONSTEXPR
 135:c:\program files\daisytoolchain\arm-none-eabi\include\c++\10.2.1\cmath ****     typename __gnu_cxx::__enable_if<__is_integer<_Tp>::__value,
 136:c:\program files\daisytoolchain\arm-none-eabi\include\c++\10.2.1\cmath ****                                     double>::__type
 137:c:\program files\daisytoolchain\arm-none-eabi\include\c++\10.2.1\cmath ****     atan(_Tp __x)
 138:c:\program files\daisytoolchain\arm-none-eabi\include\c++\10.2.1\cmath ****     { return __builtin_atan(__x); }
 139:c:\program files\daisytoolchain\arm-none-eabi\include\c++\10.2.1\cmath **** 
 140:c:\program files\daisytoolchain\arm-none-eabi\include\c++\10.2.1\cmath ****   using ::atan2;
 141:c:\program files\daisytoolchain\arm-none-eabi\include\c++\10.2.1\cmath **** 
 142:c:\program files\daisytoolchain\arm-none-eabi\include\c++\10.2.1\cmath **** #ifndef __CORRECT_ISO_CPP_MATH_H_PROTO
 143:c:\program files\daisytoolchain\arm-none-eabi\include\c++\10.2.1\cmath ****   inline _GLIBCXX_CONSTEXPR float
 144:c:\program files\daisytoolchain\arm-none-eabi\include\c++\10.2.1\cmath ****   atan2(float __y, float __x)
 145:c:\program files\daisytoolchain\arm-none-eabi\include\c++\10.2.1\cmath ****   { return __builtin_atan2f(__y, __x); }
 146:c:\program files\daisytoolchain\arm-none-eabi\include\c++\10.2.1\cmath **** 
 147:c:\program files\daisytoolchain\arm-none-eabi\include\c++\10.2.1\cmath ****   inline _GLIBCXX_CONSTEXPR long double
 148:c:\program files\daisytoolchain\arm-none-eabi\include\c++\10.2.1\cmath ****   atan2(long double __y, long double __x)
 149:c:\program files\daisytoolchain\arm-none-eabi\include\c++\10.2.1\cmath ****   { return __builtin_atan2l(__y, __x); }
 150:c:\program files\daisytoolchain\arm-none-eabi\include\c++\10.2.1\cmath **** #endif
 151:c:\program files\daisytoolchain\arm-none-eabi\include\c++\10.2.1\cmath **** 
 152:c:\program files\daisytoolchain\arm-none-eabi\include\c++\10.2.1\cmath ****   template<typename _Tp, typename _Up>
 153:c:\program files\daisytoolchain\arm-none-eabi\include\c++\10.2.1\cmath ****     inline _GLIBCXX_CONSTEXPR
 154:c:\program files\daisytoolchain\arm-none-eabi\include\c++\10.2.1\cmath ****     typename __gnu_cxx::__promote_2<_Tp, _Up>::__type
 155:c:\program files\daisytoolchain\arm-none-eabi\include\c++\10.2.1\cmath ****     atan2(_Tp __y, _Up __x)
 156:c:\program files\daisytoolchain\arm-none-eabi\include\c++\10.2.1\cmath ****     {
 157:c:\program files\daisytoolchain\arm-none-eabi\include\c++\10.2.1\cmath ****       typedef typename __gnu_cxx::__promote_2<_Tp, _Up>::__type __type;
 158:c:\program files\daisytoolchain\arm-none-eabi\include\c++\10.2.1\cmath ****       return atan2(__type(__y), __type(__x));
 159:c:\program files\daisytoolchain\arm-none-eabi\include\c++\10.2.1\cmath ****     }
ARM GAS  C:\Users\galla\AppData\Local\Temp\ccPx7zrr.s 			page 25


 160:c:\program files\daisytoolchain\arm-none-eabi\include\c++\10.2.1\cmath **** 
 161:c:\program files\daisytoolchain\arm-none-eabi\include\c++\10.2.1\cmath ****   using ::ceil;
 162:c:\program files\daisytoolchain\arm-none-eabi\include\c++\10.2.1\cmath **** 
 163:c:\program files\daisytoolchain\arm-none-eabi\include\c++\10.2.1\cmath **** #ifndef __CORRECT_ISO_CPP_MATH_H_PROTO
 164:c:\program files\daisytoolchain\arm-none-eabi\include\c++\10.2.1\cmath ****   inline _GLIBCXX_CONSTEXPR float
 165:c:\program files\daisytoolchain\arm-none-eabi\include\c++\10.2.1\cmath ****   ceil(float __x)
 166:c:\program files\daisytoolchain\arm-none-eabi\include\c++\10.2.1\cmath ****   { return __builtin_ceilf(__x); }
 167:c:\program files\daisytoolchain\arm-none-eabi\include\c++\10.2.1\cmath **** 
 168:c:\program files\daisytoolchain\arm-none-eabi\include\c++\10.2.1\cmath ****   inline _GLIBCXX_CONSTEXPR long double
 169:c:\program files\daisytoolchain\arm-none-eabi\include\c++\10.2.1\cmath ****   ceil(long double __x)
 170:c:\program files\daisytoolchain\arm-none-eabi\include\c++\10.2.1\cmath ****   { return __builtin_ceill(__x); }
 171:c:\program files\daisytoolchain\arm-none-eabi\include\c++\10.2.1\cmath **** #endif
 172:c:\program files\daisytoolchain\arm-none-eabi\include\c++\10.2.1\cmath **** 
 173:c:\program files\daisytoolchain\arm-none-eabi\include\c++\10.2.1\cmath ****   template<typename _Tp>
 174:c:\program files\daisytoolchain\arm-none-eabi\include\c++\10.2.1\cmath ****     inline _GLIBCXX_CONSTEXPR
 175:c:\program files\daisytoolchain\arm-none-eabi\include\c++\10.2.1\cmath ****     typename __gnu_cxx::__enable_if<__is_integer<_Tp>::__value, 
 176:c:\program files\daisytoolchain\arm-none-eabi\include\c++\10.2.1\cmath ****                                     double>::__type
 177:c:\program files\daisytoolchain\arm-none-eabi\include\c++\10.2.1\cmath ****     ceil(_Tp __x)
 178:c:\program files\daisytoolchain\arm-none-eabi\include\c++\10.2.1\cmath ****     { return __builtin_ceil(__x); }
 179:c:\program files\daisytoolchain\arm-none-eabi\include\c++\10.2.1\cmath **** 
 180:c:\program files\daisytoolchain\arm-none-eabi\include\c++\10.2.1\cmath ****   using ::cos;
 181:c:\program files\daisytoolchain\arm-none-eabi\include\c++\10.2.1\cmath **** 
 182:c:\program files\daisytoolchain\arm-none-eabi\include\c++\10.2.1\cmath **** #ifndef __CORRECT_ISO_CPP_MATH_H_PROTO
 183:c:\program files\daisytoolchain\arm-none-eabi\include\c++\10.2.1\cmath ****   inline _GLIBCXX_CONSTEXPR float
 184:c:\program files\daisytoolchain\arm-none-eabi\include\c++\10.2.1\cmath ****   cos(float __x)
 185:c:\program files\daisytoolchain\arm-none-eabi\include\c++\10.2.1\cmath ****   { return __builtin_cosf(__x); }
 186:c:\program files\daisytoolchain\arm-none-eabi\include\c++\10.2.1\cmath **** 
 187:c:\program files\daisytoolchain\arm-none-eabi\include\c++\10.2.1\cmath ****   inline _GLIBCXX_CONSTEXPR long double
 188:c:\program files\daisytoolchain\arm-none-eabi\include\c++\10.2.1\cmath ****   cos(long double __x)
 189:c:\program files\daisytoolchain\arm-none-eabi\include\c++\10.2.1\cmath ****   { return __builtin_cosl(__x); }
 190:c:\program files\daisytoolchain\arm-none-eabi\include\c++\10.2.1\cmath **** #endif
 191:c:\program files\daisytoolchain\arm-none-eabi\include\c++\10.2.1\cmath **** 
 192:c:\program files\daisytoolchain\arm-none-eabi\include\c++\10.2.1\cmath ****   template<typename _Tp>
 193:c:\program files\daisytoolchain\arm-none-eabi\include\c++\10.2.1\cmath ****     inline _GLIBCXX_CONSTEXPR
 194:c:\program files\daisytoolchain\arm-none-eabi\include\c++\10.2.1\cmath ****     typename __gnu_cxx::__enable_if<__is_integer<_Tp>::__value,
 195:c:\program files\daisytoolchain\arm-none-eabi\include\c++\10.2.1\cmath ****                                     double>::__type
 196:c:\program files\daisytoolchain\arm-none-eabi\include\c++\10.2.1\cmath ****     cos(_Tp __x)
 197:c:\program files\daisytoolchain\arm-none-eabi\include\c++\10.2.1\cmath ****     { return __builtin_cos(__x); }
 198:c:\program files\daisytoolchain\arm-none-eabi\include\c++\10.2.1\cmath **** 
 199:c:\program files\daisytoolchain\arm-none-eabi\include\c++\10.2.1\cmath ****   using ::cosh;
 200:c:\program files\daisytoolchain\arm-none-eabi\include\c++\10.2.1\cmath **** 
 201:c:\program files\daisytoolchain\arm-none-eabi\include\c++\10.2.1\cmath **** #ifndef __CORRECT_ISO_CPP_MATH_H_PROTO
 202:c:\program files\daisytoolchain\arm-none-eabi\include\c++\10.2.1\cmath ****   inline _GLIBCXX_CONSTEXPR float
 203:c:\program files\daisytoolchain\arm-none-eabi\include\c++\10.2.1\cmath ****   cosh(float __x)
 204:c:\program files\daisytoolchain\arm-none-eabi\include\c++\10.2.1\cmath ****   { return __builtin_coshf(__x); }
 205:c:\program files\daisytoolchain\arm-none-eabi\include\c++\10.2.1\cmath **** 
 206:c:\program files\daisytoolchain\arm-none-eabi\include\c++\10.2.1\cmath ****   inline _GLIBCXX_CONSTEXPR long double
 207:c:\program files\daisytoolchain\arm-none-eabi\include\c++\10.2.1\cmath ****   cosh(long double __x)
 208:c:\program files\daisytoolchain\arm-none-eabi\include\c++\10.2.1\cmath ****   { return __builtin_coshl(__x); }
 209:c:\program files\daisytoolchain\arm-none-eabi\include\c++\10.2.1\cmath **** #endif
 210:c:\program files\daisytoolchain\arm-none-eabi\include\c++\10.2.1\cmath **** 
 211:c:\program files\daisytoolchain\arm-none-eabi\include\c++\10.2.1\cmath ****   template<typename _Tp>
 212:c:\program files\daisytoolchain\arm-none-eabi\include\c++\10.2.1\cmath ****     inline _GLIBCXX_CONSTEXPR
 213:c:\program files\daisytoolchain\arm-none-eabi\include\c++\10.2.1\cmath ****     typename __gnu_cxx::__enable_if<__is_integer<_Tp>::__value,
 214:c:\program files\daisytoolchain\arm-none-eabi\include\c++\10.2.1\cmath ****                                     double>::__type
 215:c:\program files\daisytoolchain\arm-none-eabi\include\c++\10.2.1\cmath ****     cosh(_Tp __x)
 216:c:\program files\daisytoolchain\arm-none-eabi\include\c++\10.2.1\cmath ****     { return __builtin_cosh(__x); }
ARM GAS  C:\Users\galla\AppData\Local\Temp\ccPx7zrr.s 			page 26


 217:c:\program files\daisytoolchain\arm-none-eabi\include\c++\10.2.1\cmath **** 
 218:c:\program files\daisytoolchain\arm-none-eabi\include\c++\10.2.1\cmath ****   using ::exp;
 219:c:\program files\daisytoolchain\arm-none-eabi\include\c++\10.2.1\cmath **** 
 220:c:\program files\daisytoolchain\arm-none-eabi\include\c++\10.2.1\cmath **** #ifndef __CORRECT_ISO_CPP_MATH_H_PROTO
 221:c:\program files\daisytoolchain\arm-none-eabi\include\c++\10.2.1\cmath ****   inline _GLIBCXX_CONSTEXPR float
 222:c:\program files\daisytoolchain\arm-none-eabi\include\c++\10.2.1\cmath ****   exp(float __x)
 324              		.loc 16 222 3 view .LVU44
 325              	.LBB366:
 223:c:\program files\daisytoolchain\arm-none-eabi\include\c++\10.2.1\cmath ****   { return __builtin_expf(__x); }
 326              		.loc 16 223 5 view .LVU45
 327              	.LBE366:
 328              	.LBE365:
  83:Blink.cpp     ****     term3 = exp(-x*1.2);
 329              		.loc 15 83 16 is_stmt 0 view .LVU46
 330 0026 B1EE409A 		vneg.f32	s18, s0
 331              	.LBB368:
 332              	.LBB367:
 333              		.loc 16 223 26 view .LVU47
 334 002a FFF7FEFF 		bl	expf
 335              	.LVL10:
 336              		.loc 16 223 26 view .LVU48
 337 002e B0EE408A 		vmov.f32	s16, s0
 338              	.LBE367:
 339              	.LBE368:
 340              	.LBB369:
 341              	.LBB370:
 342 0032 B0EE490A 		vmov.f32	s0, s18
 343              	.LVL11:
 344              		.loc 16 223 26 view .LVU49
 345              	.LBE370:
 346              	.LBE369:
  83:Blink.cpp     ****     term3 = exp(-x*1.2);
 347              		.loc 15 83 5 is_stmt 1 view .LVU50
 348              	.LBB373:
 349              	.LBI369:
 222:c:\program files\daisytoolchain\arm-none-eabi\include\c++\10.2.1\cmath ****   { return __builtin_expf(__x); }
 350              		.loc 16 222 3 view .LVU51
 351              	.LBB371:
 352              		.loc 16 223 5 view .LVU52
 353              		.loc 16 223 26 is_stmt 0 view .LVU53
 354 0036 FFF7FEFF 		bl	expf
 355              	.LVL12:
 356              		.loc 16 223 26 view .LVU54
 357              	.LBE371:
 358              	.LBE373:
  84:Blink.cpp     ****     float value = (term1-term3)/(term1+term2);
 359              		.loc 15 84 17 view .LVU55
 360 003a B7EEC97A 		vcvt.f64.f32	d7, s18
 361              	.LBB374:
 362              	.LBB372:
 363              		.loc 16 223 26 view .LVU56
 364 003e B0EE409A 		vmov.f32	s18, s0
 365              	.LVL13:
 366              		.loc 16 223 26 view .LVU57
 367              	.LBE372:
 368              	.LBE374:
  84:Blink.cpp     ****     float value = (term1-term3)/(term1+term2);
ARM GAS  C:\Users\galla\AppData\Local\Temp\ccPx7zrr.s 			page 27


 369              		.loc 15 84 5 is_stmt 1 view .LVU58
  84:Blink.cpp     ****     float value = (term1-term3)/(term1+term2);
 370              		.loc 15 84 16 is_stmt 0 view .LVU59
 371 0042 9FED196B 		vldr.64	d6, .L12
 372 0046 27EE060B 		vmul.f64	d0, d7, d6
 373              	.LVL14:
  84:Blink.cpp     ****     float value = (term1-term3)/(term1+term2);
 374              		.loc 15 84 16 view .LVU60
 375 004a FFF7FEFF 		bl	exp
 376              	.LVL15:
  85:Blink.cpp     ****     x = value;
 377              		.loc 15 85 5 is_stmt 1 view .LVU61
  88:Blink.cpp     ****     lp.SetFreq((15000*tone)+200);
 378              		.loc 15 88 15 is_stmt 0 view .LVU62
 379 004e 2046     		mov	r0, r4
  84:Blink.cpp     ****     float value = (term1-term3)/(term1+term2);
 380              		.loc 15 84 11 view .LVU63
 381 0050 B7EEC07B 		vcvt.f32.f64	s14, d0
 382              	.LVL16:
  88:Blink.cpp     ****     lp.SetFreq((15000*tone)+200);
 383              		.loc 15 88 15 view .LVU64
 384 0054 9FED180A 		vldr.32	s0, .L12+16
  85:Blink.cpp     ****     x = value;
 385              		.loc 15 85 39 view .LVU65
 386 0058 39EE089A 		vadd.f32	s18, s18, s16
 387              	.LVL17:
  87:Blink.cpp     ****     hp.SetFreq(100+(intone*100));
 388              		.loc 15 87 23 view .LVU66
 389 005c 79EEE87A 		vsub.f32	s15, s19, s17
  85:Blink.cpp     ****     x = value;
 390              		.loc 15 85 25 view .LVU67
 391 0060 38EE478A 		vsub.f32	s16, s16, s14
 392              	.LVL18:
 393              	.LBB375:
 394              	.LBB376:
 395              		.file 17 "c:\\program files\\daisytoolchain\\arm-none-eabi\\include\\c++\\10.2.1\\bits\\std_abs.h"
   1:c:\program files\daisytoolchain\arm-none-eabi\include\c++\10.2.1\bits\std_abs.h **** // -*- C++ -*- C library enhancements header.
   2:c:\program files\daisytoolchain\arm-none-eabi\include\c++\10.2.1\bits\std_abs.h **** 
   3:c:\program files\daisytoolchain\arm-none-eabi\include\c++\10.2.1\bits\std_abs.h **** // Copyright (C) 2016-2020 Free Software Foundation, Inc.
   4:c:\program files\daisytoolchain\arm-none-eabi\include\c++\10.2.1\bits\std_abs.h **** //
   5:c:\program files\daisytoolchain\arm-none-eabi\include\c++\10.2.1\bits\std_abs.h **** // This file is part of the GNU ISO C++ Library.  This library is free
   6:c:\program files\daisytoolchain\arm-none-eabi\include\c++\10.2.1\bits\std_abs.h **** // software; you can redistribute it and/or modify it under the
   7:c:\program files\daisytoolchain\arm-none-eabi\include\c++\10.2.1\bits\std_abs.h **** // terms of the GNU General Public License as published by the
   8:c:\program files\daisytoolchain\arm-none-eabi\include\c++\10.2.1\bits\std_abs.h **** // Free Software Foundation; either version 3, or (at your option)
   9:c:\program files\daisytoolchain\arm-none-eabi\include\c++\10.2.1\bits\std_abs.h **** // any later version.
  10:c:\program files\daisytoolchain\arm-none-eabi\include\c++\10.2.1\bits\std_abs.h **** 
  11:c:\program files\daisytoolchain\arm-none-eabi\include\c++\10.2.1\bits\std_abs.h **** // This library is distributed in the hope that it will be useful,
  12:c:\program files\daisytoolchain\arm-none-eabi\include\c++\10.2.1\bits\std_abs.h **** // but WITHOUT ANY WARRANTY; without even the implied warranty of
  13:c:\program files\daisytoolchain\arm-none-eabi\include\c++\10.2.1\bits\std_abs.h **** // MERCHANTABILITY or FITNESS FOR A PARTICULAR PURPOSE.  See the
  14:c:\program files\daisytoolchain\arm-none-eabi\include\c++\10.2.1\bits\std_abs.h **** // GNU General Public License for more details.
  15:c:\program files\daisytoolchain\arm-none-eabi\include\c++\10.2.1\bits\std_abs.h **** 
  16:c:\program files\daisytoolchain\arm-none-eabi\include\c++\10.2.1\bits\std_abs.h **** // Under Section 7 of GPL version 3, you are granted additional
  17:c:\program files\daisytoolchain\arm-none-eabi\include\c++\10.2.1\bits\std_abs.h **** // permissions described in the GCC Runtime Library Exception, version
  18:c:\program files\daisytoolchain\arm-none-eabi\include\c++\10.2.1\bits\std_abs.h **** // 3.1, as published by the Free Software Foundation.
  19:c:\program files\daisytoolchain\arm-none-eabi\include\c++\10.2.1\bits\std_abs.h **** 
  20:c:\program files\daisytoolchain\arm-none-eabi\include\c++\10.2.1\bits\std_abs.h **** // You should have received a copy of the GNU General Public License and
  21:c:\program files\daisytoolchain\arm-none-eabi\include\c++\10.2.1\bits\std_abs.h **** // a copy of the GCC Runtime Library Exception along with this program;
ARM GAS  C:\Users\galla\AppData\Local\Temp\ccPx7zrr.s 			page 28


  22:c:\program files\daisytoolchain\arm-none-eabi\include\c++\10.2.1\bits\std_abs.h **** // see the files COPYING3 and COPYING.RUNTIME respectively.  If not, see
  23:c:\program files\daisytoolchain\arm-none-eabi\include\c++\10.2.1\bits\std_abs.h **** // <http://www.gnu.org/licenses/>.
  24:c:\program files\daisytoolchain\arm-none-eabi\include\c++\10.2.1\bits\std_abs.h **** 
  25:c:\program files\daisytoolchain\arm-none-eabi\include\c++\10.2.1\bits\std_abs.h **** /** @file include/bits/std_abs.h
  26:c:\program files\daisytoolchain\arm-none-eabi\include\c++\10.2.1\bits\std_abs.h ****  *  This is an internal header file, included by other library headers.
  27:c:\program files\daisytoolchain\arm-none-eabi\include\c++\10.2.1\bits\std_abs.h ****  *  Do not attempt to use it directly. @headername{cmath, cstdlib}
  28:c:\program files\daisytoolchain\arm-none-eabi\include\c++\10.2.1\bits\std_abs.h ****  */
  29:c:\program files\daisytoolchain\arm-none-eabi\include\c++\10.2.1\bits\std_abs.h **** 
  30:c:\program files\daisytoolchain\arm-none-eabi\include\c++\10.2.1\bits\std_abs.h **** #ifndef _GLIBCXX_BITS_STD_ABS_H
  31:c:\program files\daisytoolchain\arm-none-eabi\include\c++\10.2.1\bits\std_abs.h **** #define _GLIBCXX_BITS_STD_ABS_H
  32:c:\program files\daisytoolchain\arm-none-eabi\include\c++\10.2.1\bits\std_abs.h **** 
  33:c:\program files\daisytoolchain\arm-none-eabi\include\c++\10.2.1\bits\std_abs.h **** #pragma GCC system_header
  34:c:\program files\daisytoolchain\arm-none-eabi\include\c++\10.2.1\bits\std_abs.h **** 
  35:c:\program files\daisytoolchain\arm-none-eabi\include\c++\10.2.1\bits\std_abs.h **** #include <bits/c++config.h>
  36:c:\program files\daisytoolchain\arm-none-eabi\include\c++\10.2.1\bits\std_abs.h **** 
  37:c:\program files\daisytoolchain\arm-none-eabi\include\c++\10.2.1\bits\std_abs.h **** #define _GLIBCXX_INCLUDE_NEXT_C_HEADERS
  38:c:\program files\daisytoolchain\arm-none-eabi\include\c++\10.2.1\bits\std_abs.h **** #include_next <stdlib.h>
  39:c:\program files\daisytoolchain\arm-none-eabi\include\c++\10.2.1\bits\std_abs.h **** #ifdef __CORRECT_ISO_CPP_MATH_H_PROTO
  40:c:\program files\daisytoolchain\arm-none-eabi\include\c++\10.2.1\bits\std_abs.h **** # include_next <math.h>
  41:c:\program files\daisytoolchain\arm-none-eabi\include\c++\10.2.1\bits\std_abs.h **** #endif
  42:c:\program files\daisytoolchain\arm-none-eabi\include\c++\10.2.1\bits\std_abs.h **** #undef _GLIBCXX_INCLUDE_NEXT_C_HEADERS
  43:c:\program files\daisytoolchain\arm-none-eabi\include\c++\10.2.1\bits\std_abs.h **** 
  44:c:\program files\daisytoolchain\arm-none-eabi\include\c++\10.2.1\bits\std_abs.h **** #undef abs
  45:c:\program files\daisytoolchain\arm-none-eabi\include\c++\10.2.1\bits\std_abs.h **** 
  46:c:\program files\daisytoolchain\arm-none-eabi\include\c++\10.2.1\bits\std_abs.h **** extern "C++"
  47:c:\program files\daisytoolchain\arm-none-eabi\include\c++\10.2.1\bits\std_abs.h **** {
  48:c:\program files\daisytoolchain\arm-none-eabi\include\c++\10.2.1\bits\std_abs.h **** namespace std _GLIBCXX_VISIBILITY(default)
  49:c:\program files\daisytoolchain\arm-none-eabi\include\c++\10.2.1\bits\std_abs.h **** {
  50:c:\program files\daisytoolchain\arm-none-eabi\include\c++\10.2.1\bits\std_abs.h **** _GLIBCXX_BEGIN_NAMESPACE_VERSION
  51:c:\program files\daisytoolchain\arm-none-eabi\include\c++\10.2.1\bits\std_abs.h **** 
  52:c:\program files\daisytoolchain\arm-none-eabi\include\c++\10.2.1\bits\std_abs.h ****   using ::abs;
  53:c:\program files\daisytoolchain\arm-none-eabi\include\c++\10.2.1\bits\std_abs.h **** 
  54:c:\program files\daisytoolchain\arm-none-eabi\include\c++\10.2.1\bits\std_abs.h **** #ifndef __CORRECT_ISO_CPP_STDLIB_H_PROTO
  55:c:\program files\daisytoolchain\arm-none-eabi\include\c++\10.2.1\bits\std_abs.h ****   inline long
  56:c:\program files\daisytoolchain\arm-none-eabi\include\c++\10.2.1\bits\std_abs.h ****   abs(long __i) { return __builtin_labs(__i); }
  57:c:\program files\daisytoolchain\arm-none-eabi\include\c++\10.2.1\bits\std_abs.h **** #endif
  58:c:\program files\daisytoolchain\arm-none-eabi\include\c++\10.2.1\bits\std_abs.h **** 
  59:c:\program files\daisytoolchain\arm-none-eabi\include\c++\10.2.1\bits\std_abs.h **** #ifdef _GLIBCXX_USE_LONG_LONG
  60:c:\program files\daisytoolchain\arm-none-eabi\include\c++\10.2.1\bits\std_abs.h ****   inline long long
  61:c:\program files\daisytoolchain\arm-none-eabi\include\c++\10.2.1\bits\std_abs.h ****   abs(long long __x) { return __builtin_llabs (__x); }
  62:c:\program files\daisytoolchain\arm-none-eabi\include\c++\10.2.1\bits\std_abs.h **** #endif
  63:c:\program files\daisytoolchain\arm-none-eabi\include\c++\10.2.1\bits\std_abs.h **** 
  64:c:\program files\daisytoolchain\arm-none-eabi\include\c++\10.2.1\bits\std_abs.h **** // _GLIBCXX_RESOLVE_LIB_DEFECTS
  65:c:\program files\daisytoolchain\arm-none-eabi\include\c++\10.2.1\bits\std_abs.h **** // 2192. Validity and return type of std::abs(0u) is unclear
  66:c:\program files\daisytoolchain\arm-none-eabi\include\c++\10.2.1\bits\std_abs.h **** // 2294. <cstdlib> should declare abs(double)
  67:c:\program files\daisytoolchain\arm-none-eabi\include\c++\10.2.1\bits\std_abs.h **** // 2735. std::abs(short), std::abs(signed char) and others should return int
  68:c:\program files\daisytoolchain\arm-none-eabi\include\c++\10.2.1\bits\std_abs.h **** 
  69:c:\program files\daisytoolchain\arm-none-eabi\include\c++\10.2.1\bits\std_abs.h **** #ifndef __CORRECT_ISO_CPP_MATH_H_PROTO
  70:c:\program files\daisytoolchain\arm-none-eabi\include\c++\10.2.1\bits\std_abs.h ****   inline _GLIBCXX_CONSTEXPR double
  71:c:\program files\daisytoolchain\arm-none-eabi\include\c++\10.2.1\bits\std_abs.h ****   abs(double __x)
  72:c:\program files\daisytoolchain\arm-none-eabi\include\c++\10.2.1\bits\std_abs.h ****   { return __builtin_fabs(__x); }
  73:c:\program files\daisytoolchain\arm-none-eabi\include\c++\10.2.1\bits\std_abs.h **** 
  74:c:\program files\daisytoolchain\arm-none-eabi\include\c++\10.2.1\bits\std_abs.h ****   inline _GLIBCXX_CONSTEXPR float
  75:c:\program files\daisytoolchain\arm-none-eabi\include\c++\10.2.1\bits\std_abs.h ****   abs(float __x)
  76:c:\program files\daisytoolchain\arm-none-eabi\include\c++\10.2.1\bits\std_abs.h ****   { return __builtin_fabsf(__x); }
 396              		.loc 17 76 31 view .LVU68
 397 0064 F0EEE77A 		vabs.f32	s15, s15
ARM GAS  C:\Users\galla\AppData\Local\Temp\ccPx7zrr.s 			page 29


 398              	.LBE376:
 399              	.LBE375:
  85:Blink.cpp     ****     x = value;
 400              		.loc 15 85 11 view .LVU69
 401 0068 C8EE09AA 		vdiv.f32	s21, s16, s18
 402              	.LVL19:
  86:Blink.cpp     ****     float intone = abs(tone-1);
 403              		.loc 15 86 5 is_stmt 1 view .LVU70
  87:Blink.cpp     ****     hp.SetFreq(100+(intone*100));
 404              		.loc 15 87 5 view .LVU71
 405              	.LBB378:
 406              	.LBI375:
  75:c:\program files\daisytoolchain\arm-none-eabi\include\c++\10.2.1\bits\std_abs.h ****   { return __builtin_fabsf(__x); }
 407              		.loc 17 75 3 view .LVU72
 408              	.LBB377:
 409              		.loc 17 76 5 view .LVU73
 410              		.loc 17 76 5 is_stmt 0 view .LVU74
 411              	.LBE377:
 412              	.LBE378:
  88:Blink.cpp     ****     lp.SetFreq((15000*tone)+200);
 413              		.loc 15 88 5 is_stmt 1 view .LVU75
  88:Blink.cpp     ****     lp.SetFreq((15000*tone)+200);
 414              		.loc 15 88 15 is_stmt 0 view .LVU76
 415 006c A7EE800A 		vfma.f32	s0, s15, s0
 416 0070 FFF7FEFF 		bl	_ZN7daisysp12LadderFilter7SetFreqEf
 417              	.LVL20:
 418              		.loc 15 89 5 is_stmt 1 view .LVU77
 419              		.loc 15 89 15 is_stmt 0 view .LVU78
 420 0074 DFED117A 		vldr.32	s15, .L12+20
 421 0078 9FED110A 		vldr.32	s0, .L12+24
 422 007c 2846     		mov	r0, r5
 423 007e A9EEA70A 		vfma.f32	s0, s19, s15
 424 0082 FFF7FEFF 		bl	_ZN7daisysp12LadderFilter7SetFreqEf
 425              	.LVL21:
  90:Blink.cpp     **** 
  91:Blink.cpp     ****     return hp.Process(lp.Process(x*(outGain*4+1)));
 426              		.loc 15 91 5 is_stmt 1 view .LVU79
 427              		.loc 15 91 46 is_stmt 0 view .LVU80
 428 0086 F1EE007A 		vmov.f32	s15, #4.0e+0
 429              		.loc 15 91 22 view .LVU81
 430 008a 2846     		mov	r0, r5
 431              		.loc 15 91 46 view .LVU82
 432 008c EAEE278A 		vfma.f32	s17, s20, s15
 433              	.LVL22:
 434              		.loc 15 91 22 view .LVU83
 435 0090 28EEAA0A 		vmul.f32	s0, s17, s21
 436 0094 FFF7FEFF 		bl	_ZN7daisysp12LadderFilter7ProcessEf
 437              	.LVL23:
 438 0098 2046     		mov	r0, r4
  92:Blink.cpp     **** }
 439              		.loc 15 92 1 view .LVU84
 440 009a BDEC068B 		vldm	sp!, {d8-d10}
 441              		.cfi_restore 84
 442              		.cfi_restore 85
 443              		.cfi_restore 82
 444              		.cfi_restore 83
 445              		.cfi_restore 80
ARM GAS  C:\Users\galla\AppData\Local\Temp\ccPx7zrr.s 			page 30


 446              		.cfi_restore 81
 447              		.cfi_def_cfa_offset 16
 448              	.LVL24:
 449              		.loc 15 92 1 view .LVU85
 450 009e BDE83840 		pop	{r3, r4, r5, lr}
 451              		.cfi_restore 14
 452              		.cfi_restore 5
 453              		.cfi_restore 4
 454              		.cfi_restore 3
 455              		.cfi_def_cfa_offset 0
  91:Blink.cpp     **** }
 456              		.loc 15 91 22 view .LVU86
 457 00a2 FFF7FEBF 		b	_ZN7daisysp12LadderFilter7ProcessEf
 458              	.LVL25:
 459              	.L13:
 460 00a6 00BF     		.align	3
 461              	.L12:
 462 00a8 33333333 		.word	858993459
 463 00ac 3333F33F 		.word	1072902963
 464 00b0 00000000 		.word	.LANCHOR0
 465 00b4 00000000 		.word	.LANCHOR1
 466 00b8 0000C842 		.word	1120403456
 467 00bc 00606A46 		.word	1181376512
 468 00c0 00004843 		.word	1128792064
 469              		.cfi_endproc
 470              	.LFE4896:
 472              		.section	.text._Z4Fuzzffff,"ax",%progbits
 473              		.align	1
 474              		.p2align 2,,3
 475              		.global	_Z4Fuzzffff
 476              		.syntax unified
 477              		.thumb
 478              		.thumb_func
 479              		.fpu fpv5-d16
 481              	_Z4Fuzzffff:
 482              	.LVL26:
 483              	.LFB4897:
  93:Blink.cpp     **** //Fuzz does not have many resources, and fewer that worked for me
  94:Blink.cpp     **** //found the math online and applied to our input signal
  95:Blink.cpp     **** float Fuzz(float in, float inGain, float fuzz, float tone){
 484              		.loc 15 95 59 is_stmt 1 view -0
 485              		.cfi_startproc
 486              		@ args = 0, pretend = 0, frame = 0
 487              		@ frame_needed = 0, uses_anonymous_args = 0
  96:Blink.cpp     ****     float x = in*(1+inGain*20);
 488              		.loc 15 96 5 view .LVU88
  95:Blink.cpp     ****     float x = in*(1+inGain*20);
 489              		.loc 15 95 59 is_stmt 0 view .LVU89
 490 0000 38B5     		push	{r3, r4, r5, lr}
 491              		.cfi_def_cfa_offset 16
 492              		.cfi_offset 3, -16
 493              		.cfi_offset 4, -12
 494              		.cfi_offset 5, -8
 495              		.cfi_offset 14, -4
  97:Blink.cpp     ****     float a = 0.9*fuzz;
 496              		.loc 15 97 18 view .LVU90
 497 0002 9FED3D5B 		vldr.64	d5, .L16
ARM GAS  C:\Users\galla\AppData\Local\Temp\ccPx7zrr.s 			page 31


  95:Blink.cpp     ****     float x = in*(1+inGain*20);
 498              		.loc 15 95 59 view .LVU91
 499 0006 2DED088B 		vpush.64	{d8, d9, d10, d11}
 500              		.cfi_def_cfa_offset 48
 501              		.cfi_offset 80, -48
 502              		.cfi_offset 81, -44
 503              		.cfi_offset 82, -40
 504              		.cfi_offset 83, -36
 505              		.cfi_offset 84, -32
 506              		.cfi_offset 85, -28
 507              		.cfi_offset 86, -24
 508              		.cfi_offset 87, -20
 509              		.loc 15 97 19 view .LVU92
 510 000a B7EEC17A 		vcvt.f64.f32	d7, s2
  98:Blink.cpp     ****     float y = (8*inGain)*x/(abs(x)+1);
  99:Blink.cpp     ****     float term1 = 1+exp((2*a)/(a-1));
 100:Blink.cpp     ****     float term2 = 2*exp((a*(1-y))/(a-1));
 101:Blink.cpp     ****     float term3 = term1-term2;
 102:Blink.cpp     ****     float var = a/(a-1);
 103:Blink.cpp     ****     float coth = cosh(var)/sinh(var) - 1;
 104:Blink.cpp     ****     float out = term3*coth*-1/2 + in;
 105:Blink.cpp     **** 
 106:Blink.cpp     ****     float intone = abs(tone-1);
 107:Blink.cpp     ****     hp.SetFreq(100+(intone*100));
 511              		.loc 15 107 15 view .LVU93
 512 000e 3C4C     		ldr	r4, .L16+8
  96:Blink.cpp     ****     float a = 0.9*fuzz;
 513              		.loc 15 96 20 view .LVU94
 514 0010 F7EE009A 		vmov.f32	s19, #1.0e+0
 108:Blink.cpp     ****     lp.SetFreq((15000*tone)+200);
 515              		.loc 15 108 15 view .LVU95
 516 0014 3B4D     		ldr	r5, .L16+12
  96:Blink.cpp     ****     float a = 0.9*fuzz;
 517              		.loc 15 96 20 view .LVU96
 518 0016 F3EE046A 		vmov.f32	s13, #2.0e+1
  97:Blink.cpp     ****     float y = (8*inGain)*x/(abs(x)+1);
 519              		.loc 15 97 18 view .LVU97
 520 001a 27EE057B 		vmul.f64	d7, d7, d5
  96:Blink.cpp     ****     float a = 0.9*fuzz;
 521              		.loc 15 96 20 view .LVU98
 522 001e B0EE69BA 		vmov.f32	s22, s19
  95:Blink.cpp     ****     float x = in*(1+inGain*20);
 523              		.loc 15 95 59 view .LVU99
 524 0022 B0EE40AA 		vmov.f32	s20, s0
 525 0026 F0EE61AA 		vmov.f32	s21, s3
  96:Blink.cpp     ****     float a = 0.9*fuzz;
 526              		.loc 15 96 20 view .LVU100
 527 002a A0EEA6BA 		vfma.f32	s22, s1, s13
  97:Blink.cpp     ****     float y = (8*inGain)*x/(abs(x)+1);
 528              		.loc 15 97 11 view .LVU101
 529 002e B7EEC78B 		vcvt.f32.f64	s16, d7
  95:Blink.cpp     ****     float x = in*(1+inGain*20);
 530              		.loc 15 95 59 view .LVU102
 531 0032 B0EE609A 		vmov.f32	s18, s1
  99:Blink.cpp     ****     float term2 = 2*exp((a*(1-y))/(a-1));
 532              		.loc 15 99 33 view .LVU103
 533 0036 78EE69BA 		vsub.f32	s23, s16, s19
ARM GAS  C:\Users\galla\AppData\Local\Temp\ccPx7zrr.s 			page 32


  96:Blink.cpp     ****     float a = 0.9*fuzz;
 534              		.loc 15 96 11 view .LVU104
 535 003a 2BEE00BA 		vmul.f32	s22, s22, s0
 536              	.LVL27:
  97:Blink.cpp     ****     float y = (8*inGain)*x/(abs(x)+1);
 537              		.loc 15 97 5 is_stmt 1 view .LVU105
  98:Blink.cpp     ****     float term1 = 1+exp((2*a)/(a-1));
 538              		.loc 15 98 5 view .LVU106
 539              	.LBB379:
 540              	.LBI379:
  75:c:\program files\daisytoolchain\arm-none-eabi\include\c++\10.2.1\bits\std_abs.h ****   { return __builtin_fabsf(__x); }
 541              		.loc 17 75 3 view .LVU107
 542              	.LBB380:
 543              		.loc 17 76 5 view .LVU108
 544              		.loc 17 76 5 is_stmt 0 view .LVU109
 545              	.LBE380:
 546              	.LBE379:
  99:Blink.cpp     ****     float term2 = 2*exp((a*(1-y))/(a-1));
 547              		.loc 15 99 5 is_stmt 1 view .LVU110
 548              	.LBB382:
 549              	.LBI382:
 222:c:\program files\daisytoolchain\arm-none-eabi\include\c++\10.2.1\cmath ****   { return __builtin_expf(__x); }
 550              		.loc 16 222 3 view .LVU111
 551              	.LBB383:
 552              		.loc 16 223 5 view .LVU112
 553              	.LBE383:
 554              	.LBE382:
  99:Blink.cpp     ****     float term2 = 2*exp((a*(1-y))/(a-1));
 555              		.loc 15 99 27 is_stmt 0 view .LVU113
 556 003e 38EE080A 		vadd.f32	s0, s16, s16
 557              	.LVL28:
 558              	.LBB386:
 559              	.LBB384:
 560              		.loc 16 223 26 view .LVU114
 561 0042 80EE2B0A 		vdiv.f32	s0, s0, s23
 562              	.LVL29:
 563              		.loc 16 223 26 view .LVU115
 564 0046 FFF7FEFF 		bl	expf
 565              	.LVL30:
 566              		.loc 16 223 26 view .LVU116
 567              	.LBE384:
 568              	.LBE386:
  98:Blink.cpp     ****     float term1 = 1+exp((2*a)/(a-1));
 569              		.loc 15 98 17 view .LVU117
 570 004a F2EE000A 		vmov.f32	s1, #8.0e+0
 571              	.LBB387:
 572              	.LBB381:
 573              		.loc 17 76 31 view .LVU118
 574 004e F0EECB7A 		vabs.f32	s15, s22
 575              	.LBE381:
 576              	.LBE387:
 577              	.LBB388:
 578              	.LBB385:
 579              		.loc 16 223 26 view .LVU119
 580 0052 F0EE408A 		vmov.f32	s17, s0
 581              	.LVL31:
 582              		.loc 16 223 26 view .LVU120
ARM GAS  C:\Users\galla\AppData\Local\Temp\ccPx7zrr.s 			page 33


 583              	.LBE385:
 584              	.LBE388:
 100:Blink.cpp     ****     float term3 = term1-term2;
 585              		.loc 15 100 5 is_stmt 1 view .LVU121
 586              	.LBB389:
 587              	.LBI389:
 222:c:\program files\daisytoolchain\arm-none-eabi\include\c++\10.2.1\cmath ****   { return __builtin_expf(__x); }
 588              		.loc 16 222 3 view .LVU122
 589              	.LBB390:
 590              		.loc 16 223 5 view .LVU123
 591              	.LBE390:
 592              	.LBE389:
  98:Blink.cpp     ****     float term1 = 1+exp((2*a)/(a-1));
 593              		.loc 15 98 17 is_stmt 0 view .LVU124
 594 0056 29EE209A 		vmul.f32	s18, s18, s1
 595              	.LVL32:
  98:Blink.cpp     ****     float term1 = 1+exp((2*a)/(a-1));
 596              		.loc 15 98 35 view .LVU125
 597 005a 77EEA97A 		vadd.f32	s15, s15, s19
 598              	.LVL33:
  98:Blink.cpp     ****     float term1 = 1+exp((2*a)/(a-1));
 599              		.loc 15 98 25 view .LVU126
 600 005e 29EE0B9A 		vmul.f32	s18, s18, s22
 601              	.LVL34:
  98:Blink.cpp     ****     float term1 = 1+exp((2*a)/(a-1));
 602              		.loc 15 98 37 view .LVU127
 603 0062 89EE270A 		vdiv.f32	s0, s18, s15
 604              	.LVL35:
 100:Blink.cpp     ****     float term3 = term1-term2;
 605              		.loc 15 100 30 view .LVU128
 606 0066 39EEC00A 		vsub.f32	s0, s19, s0
 607              	.LVL36:
 100:Blink.cpp     ****     float term3 = term1-term2;
 608              		.loc 15 100 27 view .LVU129
 609 006a 20EE080A 		vmul.f32	s0, s0, s16
 610              	.LBB392:
 611              	.LBB391:
 612              		.loc 16 223 26 view .LVU130
 613 006e 80EE2B0A 		vdiv.f32	s0, s0, s23
 614 0072 FFF7FEFF 		bl	expf
 615              	.LVL37:
 616              		.loc 16 223 26 view .LVU131
 617              	.LBE391:
 618              	.LBE392:
 101:Blink.cpp     ****     float var = a/(a-1);
 619              		.loc 15 101 5 is_stmt 1 view .LVU132
 102:Blink.cpp     ****     float coth = cosh(var)/sinh(var) - 1;
 620              		.loc 15 102 11 is_stmt 0 view .LVU133
 621 0076 88EE2B9A 		vdiv.f32	s18, s16, s23
 101:Blink.cpp     ****     float var = a/(a-1);
 622              		.loc 15 101 11 view .LVU134
 623 007a F0EE007A 		vmov.f32	s15, #2.0e+0
  99:Blink.cpp     ****     float term2 = 2*exp((a*(1-y))/(a-1));
 624              		.loc 15 99 36 view .LVU135
 625 007e 38EEA98A 		vadd.f32	s16, s17, s19
 626              	.LVL38:
 101:Blink.cpp     ****     float var = a/(a-1);
ARM GAS  C:\Users\galla\AppData\Local\Temp\ccPx7zrr.s 			page 34


 627              		.loc 15 101 11 view .LVU136
 628 0082 A0EE678A 		vfms.f32	s16, s0, s15
 629              	.LVL39:
 102:Blink.cpp     ****     float coth = cosh(var)/sinh(var) - 1;
 630              		.loc 15 102 5 is_stmt 1 view .LVU137
 103:Blink.cpp     ****     float out = term3*coth*-1/2 + in;
 631              		.loc 15 103 5 view .LVU138
 632              	.LBB393:
 633              	.LBI393:
 203:c:\program files\daisytoolchain\arm-none-eabi\include\c++\10.2.1\cmath ****   { return __builtin_coshf(__x); }
 634              		.loc 16 203 3 view .LVU139
 635              	.LBB394:
 204:c:\program files\daisytoolchain\arm-none-eabi\include\c++\10.2.1\cmath **** 
 636              		.loc 16 204 5 view .LVU140
 204:c:\program files\daisytoolchain\arm-none-eabi\include\c++\10.2.1\cmath **** 
 637              		.loc 16 204 27 is_stmt 0 view .LVU141
 638 0086 B0EE490A 		vmov.f32	s0, s18
 639              	.LVL40:
 204:c:\program files\daisytoolchain\arm-none-eabi\include\c++\10.2.1\cmath **** 
 640              		.loc 16 204 27 view .LVU142
 641 008a FFF7FEFF 		bl	coshf
 642              	.LVL41:
 643 008e F0EE408A 		vmov.f32	s17, s0
 644              	.LVL42:
 204:c:\program files\daisytoolchain\arm-none-eabi\include\c++\10.2.1\cmath **** 
 645              		.loc 16 204 27 view .LVU143
 646              	.LBE394:
 647              	.LBE393:
 648              	.LBB395:
 649              	.LBB396:
 224:c:\program files\daisytoolchain\arm-none-eabi\include\c++\10.2.1\cmath **** 
 225:c:\program files\daisytoolchain\arm-none-eabi\include\c++\10.2.1\cmath ****   inline _GLIBCXX_CONSTEXPR long double
 226:c:\program files\daisytoolchain\arm-none-eabi\include\c++\10.2.1\cmath ****   exp(long double __x)
 227:c:\program files\daisytoolchain\arm-none-eabi\include\c++\10.2.1\cmath ****   { return __builtin_expl(__x); }
 228:c:\program files\daisytoolchain\arm-none-eabi\include\c++\10.2.1\cmath **** #endif
 229:c:\program files\daisytoolchain\arm-none-eabi\include\c++\10.2.1\cmath **** 
 230:c:\program files\daisytoolchain\arm-none-eabi\include\c++\10.2.1\cmath ****   template<typename _Tp>
 231:c:\program files\daisytoolchain\arm-none-eabi\include\c++\10.2.1\cmath ****     inline _GLIBCXX_CONSTEXPR
 232:c:\program files\daisytoolchain\arm-none-eabi\include\c++\10.2.1\cmath ****     typename __gnu_cxx::__enable_if<__is_integer<_Tp>::__value,
 233:c:\program files\daisytoolchain\arm-none-eabi\include\c++\10.2.1\cmath ****                                     double>::__type
 234:c:\program files\daisytoolchain\arm-none-eabi\include\c++\10.2.1\cmath ****     exp(_Tp __x)
 235:c:\program files\daisytoolchain\arm-none-eabi\include\c++\10.2.1\cmath ****     { return __builtin_exp(__x); }
 236:c:\program files\daisytoolchain\arm-none-eabi\include\c++\10.2.1\cmath **** 
 237:c:\program files\daisytoolchain\arm-none-eabi\include\c++\10.2.1\cmath ****   using ::fabs;
 238:c:\program files\daisytoolchain\arm-none-eabi\include\c++\10.2.1\cmath **** 
 239:c:\program files\daisytoolchain\arm-none-eabi\include\c++\10.2.1\cmath **** #ifndef __CORRECT_ISO_CPP_MATH_H_PROTO
 240:c:\program files\daisytoolchain\arm-none-eabi\include\c++\10.2.1\cmath ****   inline _GLIBCXX_CONSTEXPR float
 241:c:\program files\daisytoolchain\arm-none-eabi\include\c++\10.2.1\cmath ****   fabs(float __x)
 242:c:\program files\daisytoolchain\arm-none-eabi\include\c++\10.2.1\cmath ****   { return __builtin_fabsf(__x); }
 243:c:\program files\daisytoolchain\arm-none-eabi\include\c++\10.2.1\cmath **** 
 244:c:\program files\daisytoolchain\arm-none-eabi\include\c++\10.2.1\cmath ****   inline _GLIBCXX_CONSTEXPR long double
 245:c:\program files\daisytoolchain\arm-none-eabi\include\c++\10.2.1\cmath ****   fabs(long double __x)
 246:c:\program files\daisytoolchain\arm-none-eabi\include\c++\10.2.1\cmath ****   { return __builtin_fabsl(__x); }
 247:c:\program files\daisytoolchain\arm-none-eabi\include\c++\10.2.1\cmath **** #endif
 248:c:\program files\daisytoolchain\arm-none-eabi\include\c++\10.2.1\cmath **** 
 249:c:\program files\daisytoolchain\arm-none-eabi\include\c++\10.2.1\cmath ****   template<typename _Tp>
 250:c:\program files\daisytoolchain\arm-none-eabi\include\c++\10.2.1\cmath ****     inline _GLIBCXX_CONSTEXPR
ARM GAS  C:\Users\galla\AppData\Local\Temp\ccPx7zrr.s 			page 35


 251:c:\program files\daisytoolchain\arm-none-eabi\include\c++\10.2.1\cmath ****     typename __gnu_cxx::__enable_if<__is_integer<_Tp>::__value,
 252:c:\program files\daisytoolchain\arm-none-eabi\include\c++\10.2.1\cmath ****                                     double>::__type
 253:c:\program files\daisytoolchain\arm-none-eabi\include\c++\10.2.1\cmath ****     fabs(_Tp __x)
 254:c:\program files\daisytoolchain\arm-none-eabi\include\c++\10.2.1\cmath ****     { return __builtin_fabs(__x); }
 255:c:\program files\daisytoolchain\arm-none-eabi\include\c++\10.2.1\cmath **** 
 256:c:\program files\daisytoolchain\arm-none-eabi\include\c++\10.2.1\cmath ****   using ::floor;
 257:c:\program files\daisytoolchain\arm-none-eabi\include\c++\10.2.1\cmath **** 
 258:c:\program files\daisytoolchain\arm-none-eabi\include\c++\10.2.1\cmath **** #ifndef __CORRECT_ISO_CPP_MATH_H_PROTO
 259:c:\program files\daisytoolchain\arm-none-eabi\include\c++\10.2.1\cmath ****   inline _GLIBCXX_CONSTEXPR float
 260:c:\program files\daisytoolchain\arm-none-eabi\include\c++\10.2.1\cmath ****   floor(float __x)
 261:c:\program files\daisytoolchain\arm-none-eabi\include\c++\10.2.1\cmath ****   { return __builtin_floorf(__x); }
 262:c:\program files\daisytoolchain\arm-none-eabi\include\c++\10.2.1\cmath **** 
 263:c:\program files\daisytoolchain\arm-none-eabi\include\c++\10.2.1\cmath ****   inline _GLIBCXX_CONSTEXPR long double
 264:c:\program files\daisytoolchain\arm-none-eabi\include\c++\10.2.1\cmath ****   floor(long double __x)
 265:c:\program files\daisytoolchain\arm-none-eabi\include\c++\10.2.1\cmath ****   { return __builtin_floorl(__x); }
 266:c:\program files\daisytoolchain\arm-none-eabi\include\c++\10.2.1\cmath **** #endif
 267:c:\program files\daisytoolchain\arm-none-eabi\include\c++\10.2.1\cmath **** 
 268:c:\program files\daisytoolchain\arm-none-eabi\include\c++\10.2.1\cmath ****   template<typename _Tp>
 269:c:\program files\daisytoolchain\arm-none-eabi\include\c++\10.2.1\cmath ****     inline _GLIBCXX_CONSTEXPR
 270:c:\program files\daisytoolchain\arm-none-eabi\include\c++\10.2.1\cmath ****     typename __gnu_cxx::__enable_if<__is_integer<_Tp>::__value,
 271:c:\program files\daisytoolchain\arm-none-eabi\include\c++\10.2.1\cmath ****                                     double>::__type
 272:c:\program files\daisytoolchain\arm-none-eabi\include\c++\10.2.1\cmath ****     floor(_Tp __x)
 273:c:\program files\daisytoolchain\arm-none-eabi\include\c++\10.2.1\cmath ****     { return __builtin_floor(__x); }
 274:c:\program files\daisytoolchain\arm-none-eabi\include\c++\10.2.1\cmath **** 
 275:c:\program files\daisytoolchain\arm-none-eabi\include\c++\10.2.1\cmath ****   using ::fmod;
 276:c:\program files\daisytoolchain\arm-none-eabi\include\c++\10.2.1\cmath **** 
 277:c:\program files\daisytoolchain\arm-none-eabi\include\c++\10.2.1\cmath **** #ifndef __CORRECT_ISO_CPP_MATH_H_PROTO
 278:c:\program files\daisytoolchain\arm-none-eabi\include\c++\10.2.1\cmath ****   inline _GLIBCXX_CONSTEXPR float
 279:c:\program files\daisytoolchain\arm-none-eabi\include\c++\10.2.1\cmath ****   fmod(float __x, float __y)
 280:c:\program files\daisytoolchain\arm-none-eabi\include\c++\10.2.1\cmath ****   { return __builtin_fmodf(__x, __y); }
 281:c:\program files\daisytoolchain\arm-none-eabi\include\c++\10.2.1\cmath **** 
 282:c:\program files\daisytoolchain\arm-none-eabi\include\c++\10.2.1\cmath ****   inline _GLIBCXX_CONSTEXPR long double
 283:c:\program files\daisytoolchain\arm-none-eabi\include\c++\10.2.1\cmath ****   fmod(long double __x, long double __y)
 284:c:\program files\daisytoolchain\arm-none-eabi\include\c++\10.2.1\cmath ****   { return __builtin_fmodl(__x, __y); }
 285:c:\program files\daisytoolchain\arm-none-eabi\include\c++\10.2.1\cmath **** #endif
 286:c:\program files\daisytoolchain\arm-none-eabi\include\c++\10.2.1\cmath **** 
 287:c:\program files\daisytoolchain\arm-none-eabi\include\c++\10.2.1\cmath ****   template<typename _Tp, typename _Up>
 288:c:\program files\daisytoolchain\arm-none-eabi\include\c++\10.2.1\cmath ****     inline _GLIBCXX_CONSTEXPR
 289:c:\program files\daisytoolchain\arm-none-eabi\include\c++\10.2.1\cmath ****     typename __gnu_cxx::__promote_2<_Tp, _Up>::__type
 290:c:\program files\daisytoolchain\arm-none-eabi\include\c++\10.2.1\cmath ****     fmod(_Tp __x, _Up __y)
 291:c:\program files\daisytoolchain\arm-none-eabi\include\c++\10.2.1\cmath ****     {
 292:c:\program files\daisytoolchain\arm-none-eabi\include\c++\10.2.1\cmath ****       typedef typename __gnu_cxx::__promote_2<_Tp, _Up>::__type __type;
 293:c:\program files\daisytoolchain\arm-none-eabi\include\c++\10.2.1\cmath ****       return fmod(__type(__x), __type(__y));
 294:c:\program files\daisytoolchain\arm-none-eabi\include\c++\10.2.1\cmath ****     }
 295:c:\program files\daisytoolchain\arm-none-eabi\include\c++\10.2.1\cmath **** 
 296:c:\program files\daisytoolchain\arm-none-eabi\include\c++\10.2.1\cmath ****   using ::frexp;
 297:c:\program files\daisytoolchain\arm-none-eabi\include\c++\10.2.1\cmath **** 
 298:c:\program files\daisytoolchain\arm-none-eabi\include\c++\10.2.1\cmath **** #ifndef __CORRECT_ISO_CPP_MATH_H_PROTO
 299:c:\program files\daisytoolchain\arm-none-eabi\include\c++\10.2.1\cmath ****   inline float
 300:c:\program files\daisytoolchain\arm-none-eabi\include\c++\10.2.1\cmath ****   frexp(float __x, int* __exp)
 301:c:\program files\daisytoolchain\arm-none-eabi\include\c++\10.2.1\cmath ****   { return __builtin_frexpf(__x, __exp); }
 302:c:\program files\daisytoolchain\arm-none-eabi\include\c++\10.2.1\cmath **** 
 303:c:\program files\daisytoolchain\arm-none-eabi\include\c++\10.2.1\cmath ****   inline long double
 304:c:\program files\daisytoolchain\arm-none-eabi\include\c++\10.2.1\cmath ****   frexp(long double __x, int* __exp)
 305:c:\program files\daisytoolchain\arm-none-eabi\include\c++\10.2.1\cmath ****   { return __builtin_frexpl(__x, __exp); }
 306:c:\program files\daisytoolchain\arm-none-eabi\include\c++\10.2.1\cmath **** #endif
 307:c:\program files\daisytoolchain\arm-none-eabi\include\c++\10.2.1\cmath **** 
ARM GAS  C:\Users\galla\AppData\Local\Temp\ccPx7zrr.s 			page 36


 308:c:\program files\daisytoolchain\arm-none-eabi\include\c++\10.2.1\cmath ****   template<typename _Tp>
 309:c:\program files\daisytoolchain\arm-none-eabi\include\c++\10.2.1\cmath ****     inline _GLIBCXX_CONSTEXPR
 310:c:\program files\daisytoolchain\arm-none-eabi\include\c++\10.2.1\cmath ****     typename __gnu_cxx::__enable_if<__is_integer<_Tp>::__value, 
 311:c:\program files\daisytoolchain\arm-none-eabi\include\c++\10.2.1\cmath ****                                     double>::__type
 312:c:\program files\daisytoolchain\arm-none-eabi\include\c++\10.2.1\cmath ****     frexp(_Tp __x, int* __exp)
 313:c:\program files\daisytoolchain\arm-none-eabi\include\c++\10.2.1\cmath ****     { return __builtin_frexp(__x, __exp); }
 314:c:\program files\daisytoolchain\arm-none-eabi\include\c++\10.2.1\cmath **** 
 315:c:\program files\daisytoolchain\arm-none-eabi\include\c++\10.2.1\cmath ****   using ::ldexp;
 316:c:\program files\daisytoolchain\arm-none-eabi\include\c++\10.2.1\cmath **** 
 317:c:\program files\daisytoolchain\arm-none-eabi\include\c++\10.2.1\cmath **** #ifndef __CORRECT_ISO_CPP_MATH_H_PROTO
 318:c:\program files\daisytoolchain\arm-none-eabi\include\c++\10.2.1\cmath ****   inline _GLIBCXX_CONSTEXPR float
 319:c:\program files\daisytoolchain\arm-none-eabi\include\c++\10.2.1\cmath ****   ldexp(float __x, int __exp)
 320:c:\program files\daisytoolchain\arm-none-eabi\include\c++\10.2.1\cmath ****   { return __builtin_ldexpf(__x, __exp); }
 321:c:\program files\daisytoolchain\arm-none-eabi\include\c++\10.2.1\cmath **** 
 322:c:\program files\daisytoolchain\arm-none-eabi\include\c++\10.2.1\cmath ****   inline _GLIBCXX_CONSTEXPR long double
 323:c:\program files\daisytoolchain\arm-none-eabi\include\c++\10.2.1\cmath ****   ldexp(long double __x, int __exp)
 324:c:\program files\daisytoolchain\arm-none-eabi\include\c++\10.2.1\cmath ****   { return __builtin_ldexpl(__x, __exp); }
 325:c:\program files\daisytoolchain\arm-none-eabi\include\c++\10.2.1\cmath **** #endif
 326:c:\program files\daisytoolchain\arm-none-eabi\include\c++\10.2.1\cmath **** 
 327:c:\program files\daisytoolchain\arm-none-eabi\include\c++\10.2.1\cmath ****   template<typename _Tp>
 328:c:\program files\daisytoolchain\arm-none-eabi\include\c++\10.2.1\cmath ****     inline _GLIBCXX_CONSTEXPR
 329:c:\program files\daisytoolchain\arm-none-eabi\include\c++\10.2.1\cmath ****     typename __gnu_cxx::__enable_if<__is_integer<_Tp>::__value, 
 330:c:\program files\daisytoolchain\arm-none-eabi\include\c++\10.2.1\cmath ****                                     double>::__type
 331:c:\program files\daisytoolchain\arm-none-eabi\include\c++\10.2.1\cmath ****     ldexp(_Tp __x, int __exp)
 332:c:\program files\daisytoolchain\arm-none-eabi\include\c++\10.2.1\cmath ****     { return __builtin_ldexp(__x, __exp); }
 333:c:\program files\daisytoolchain\arm-none-eabi\include\c++\10.2.1\cmath **** 
 334:c:\program files\daisytoolchain\arm-none-eabi\include\c++\10.2.1\cmath ****   using ::log;
 335:c:\program files\daisytoolchain\arm-none-eabi\include\c++\10.2.1\cmath **** 
 336:c:\program files\daisytoolchain\arm-none-eabi\include\c++\10.2.1\cmath **** #ifndef __CORRECT_ISO_CPP_MATH_H_PROTO
 337:c:\program files\daisytoolchain\arm-none-eabi\include\c++\10.2.1\cmath ****   inline _GLIBCXX_CONSTEXPR float
 338:c:\program files\daisytoolchain\arm-none-eabi\include\c++\10.2.1\cmath ****   log(float __x)
 339:c:\program files\daisytoolchain\arm-none-eabi\include\c++\10.2.1\cmath ****   { return __builtin_logf(__x); }
 340:c:\program files\daisytoolchain\arm-none-eabi\include\c++\10.2.1\cmath **** 
 341:c:\program files\daisytoolchain\arm-none-eabi\include\c++\10.2.1\cmath ****   inline _GLIBCXX_CONSTEXPR long double
 342:c:\program files\daisytoolchain\arm-none-eabi\include\c++\10.2.1\cmath ****   log(long double __x)
 343:c:\program files\daisytoolchain\arm-none-eabi\include\c++\10.2.1\cmath ****   { return __builtin_logl(__x); }
 344:c:\program files\daisytoolchain\arm-none-eabi\include\c++\10.2.1\cmath **** #endif
 345:c:\program files\daisytoolchain\arm-none-eabi\include\c++\10.2.1\cmath **** 
 346:c:\program files\daisytoolchain\arm-none-eabi\include\c++\10.2.1\cmath ****   template<typename _Tp>
 347:c:\program files\daisytoolchain\arm-none-eabi\include\c++\10.2.1\cmath ****     inline _GLIBCXX_CONSTEXPR
 348:c:\program files\daisytoolchain\arm-none-eabi\include\c++\10.2.1\cmath ****     typename __gnu_cxx::__enable_if<__is_integer<_Tp>::__value, 
 349:c:\program files\daisytoolchain\arm-none-eabi\include\c++\10.2.1\cmath ****                                     double>::__type
 350:c:\program files\daisytoolchain\arm-none-eabi\include\c++\10.2.1\cmath ****     log(_Tp __x)
 351:c:\program files\daisytoolchain\arm-none-eabi\include\c++\10.2.1\cmath ****     { return __builtin_log(__x); }
 352:c:\program files\daisytoolchain\arm-none-eabi\include\c++\10.2.1\cmath **** 
 353:c:\program files\daisytoolchain\arm-none-eabi\include\c++\10.2.1\cmath ****   using ::log10;
 354:c:\program files\daisytoolchain\arm-none-eabi\include\c++\10.2.1\cmath **** 
 355:c:\program files\daisytoolchain\arm-none-eabi\include\c++\10.2.1\cmath **** #ifndef __CORRECT_ISO_CPP_MATH_H_PROTO
 356:c:\program files\daisytoolchain\arm-none-eabi\include\c++\10.2.1\cmath ****   inline _GLIBCXX_CONSTEXPR float
 357:c:\program files\daisytoolchain\arm-none-eabi\include\c++\10.2.1\cmath ****   log10(float __x)
 358:c:\program files\daisytoolchain\arm-none-eabi\include\c++\10.2.1\cmath ****   { return __builtin_log10f(__x); }
 359:c:\program files\daisytoolchain\arm-none-eabi\include\c++\10.2.1\cmath **** 
 360:c:\program files\daisytoolchain\arm-none-eabi\include\c++\10.2.1\cmath ****   inline _GLIBCXX_CONSTEXPR long double
 361:c:\program files\daisytoolchain\arm-none-eabi\include\c++\10.2.1\cmath ****   log10(long double __x)
 362:c:\program files\daisytoolchain\arm-none-eabi\include\c++\10.2.1\cmath ****   { return __builtin_log10l(__x); }
 363:c:\program files\daisytoolchain\arm-none-eabi\include\c++\10.2.1\cmath **** #endif
 364:c:\program files\daisytoolchain\arm-none-eabi\include\c++\10.2.1\cmath **** 
ARM GAS  C:\Users\galla\AppData\Local\Temp\ccPx7zrr.s 			page 37


 365:c:\program files\daisytoolchain\arm-none-eabi\include\c++\10.2.1\cmath ****   template<typename _Tp>
 366:c:\program files\daisytoolchain\arm-none-eabi\include\c++\10.2.1\cmath ****     inline _GLIBCXX_CONSTEXPR
 367:c:\program files\daisytoolchain\arm-none-eabi\include\c++\10.2.1\cmath ****     typename __gnu_cxx::__enable_if<__is_integer<_Tp>::__value,
 368:c:\program files\daisytoolchain\arm-none-eabi\include\c++\10.2.1\cmath ****                                     double>::__type
 369:c:\program files\daisytoolchain\arm-none-eabi\include\c++\10.2.1\cmath ****     log10(_Tp __x)
 370:c:\program files\daisytoolchain\arm-none-eabi\include\c++\10.2.1\cmath ****     { return __builtin_log10(__x); }
 371:c:\program files\daisytoolchain\arm-none-eabi\include\c++\10.2.1\cmath **** 
 372:c:\program files\daisytoolchain\arm-none-eabi\include\c++\10.2.1\cmath ****   using ::modf;
 373:c:\program files\daisytoolchain\arm-none-eabi\include\c++\10.2.1\cmath **** 
 374:c:\program files\daisytoolchain\arm-none-eabi\include\c++\10.2.1\cmath **** #ifndef __CORRECT_ISO_CPP_MATH_H_PROTO
 375:c:\program files\daisytoolchain\arm-none-eabi\include\c++\10.2.1\cmath ****   inline float
 376:c:\program files\daisytoolchain\arm-none-eabi\include\c++\10.2.1\cmath ****   modf(float __x, float* __iptr)
 377:c:\program files\daisytoolchain\arm-none-eabi\include\c++\10.2.1\cmath ****   { return __builtin_modff(__x, __iptr); }
 378:c:\program files\daisytoolchain\arm-none-eabi\include\c++\10.2.1\cmath **** 
 379:c:\program files\daisytoolchain\arm-none-eabi\include\c++\10.2.1\cmath ****   inline long double
 380:c:\program files\daisytoolchain\arm-none-eabi\include\c++\10.2.1\cmath ****   modf(long double __x, long double* __iptr)
 381:c:\program files\daisytoolchain\arm-none-eabi\include\c++\10.2.1\cmath ****   { return __builtin_modfl(__x, __iptr); }
 382:c:\program files\daisytoolchain\arm-none-eabi\include\c++\10.2.1\cmath **** #endif
 383:c:\program files\daisytoolchain\arm-none-eabi\include\c++\10.2.1\cmath **** 
 384:c:\program files\daisytoolchain\arm-none-eabi\include\c++\10.2.1\cmath ****   using ::pow;
 385:c:\program files\daisytoolchain\arm-none-eabi\include\c++\10.2.1\cmath **** 
 386:c:\program files\daisytoolchain\arm-none-eabi\include\c++\10.2.1\cmath **** #ifndef __CORRECT_ISO_CPP_MATH_H_PROTO
 387:c:\program files\daisytoolchain\arm-none-eabi\include\c++\10.2.1\cmath ****   inline _GLIBCXX_CONSTEXPR float
 388:c:\program files\daisytoolchain\arm-none-eabi\include\c++\10.2.1\cmath ****   pow(float __x, float __y)
 389:c:\program files\daisytoolchain\arm-none-eabi\include\c++\10.2.1\cmath ****   { return __builtin_powf(__x, __y); }
 390:c:\program files\daisytoolchain\arm-none-eabi\include\c++\10.2.1\cmath **** 
 391:c:\program files\daisytoolchain\arm-none-eabi\include\c++\10.2.1\cmath ****   inline _GLIBCXX_CONSTEXPR long double
 392:c:\program files\daisytoolchain\arm-none-eabi\include\c++\10.2.1\cmath ****   pow(long double __x, long double __y)
 393:c:\program files\daisytoolchain\arm-none-eabi\include\c++\10.2.1\cmath ****   { return __builtin_powl(__x, __y); }
 394:c:\program files\daisytoolchain\arm-none-eabi\include\c++\10.2.1\cmath **** 
 395:c:\program files\daisytoolchain\arm-none-eabi\include\c++\10.2.1\cmath **** #if __cplusplus < 201103L
 396:c:\program files\daisytoolchain\arm-none-eabi\include\c++\10.2.1\cmath ****   // _GLIBCXX_RESOLVE_LIB_DEFECTS
 397:c:\program files\daisytoolchain\arm-none-eabi\include\c++\10.2.1\cmath ****   // DR 550. What should the return type of pow(float,int) be?
 398:c:\program files\daisytoolchain\arm-none-eabi\include\c++\10.2.1\cmath ****   inline double
 399:c:\program files\daisytoolchain\arm-none-eabi\include\c++\10.2.1\cmath ****   pow(double __x, int __i)
 400:c:\program files\daisytoolchain\arm-none-eabi\include\c++\10.2.1\cmath ****   { return __builtin_powi(__x, __i); }
 401:c:\program files\daisytoolchain\arm-none-eabi\include\c++\10.2.1\cmath **** 
 402:c:\program files\daisytoolchain\arm-none-eabi\include\c++\10.2.1\cmath ****   inline float
 403:c:\program files\daisytoolchain\arm-none-eabi\include\c++\10.2.1\cmath ****   pow(float __x, int __n)
 404:c:\program files\daisytoolchain\arm-none-eabi\include\c++\10.2.1\cmath ****   { return __builtin_powif(__x, __n); }
 405:c:\program files\daisytoolchain\arm-none-eabi\include\c++\10.2.1\cmath **** 
 406:c:\program files\daisytoolchain\arm-none-eabi\include\c++\10.2.1\cmath ****   inline long double
 407:c:\program files\daisytoolchain\arm-none-eabi\include\c++\10.2.1\cmath ****   pow(long double __x, int __n)
 408:c:\program files\daisytoolchain\arm-none-eabi\include\c++\10.2.1\cmath ****   { return __builtin_powil(__x, __n); }
 409:c:\program files\daisytoolchain\arm-none-eabi\include\c++\10.2.1\cmath **** #endif
 410:c:\program files\daisytoolchain\arm-none-eabi\include\c++\10.2.1\cmath **** #endif
 411:c:\program files\daisytoolchain\arm-none-eabi\include\c++\10.2.1\cmath **** 
 412:c:\program files\daisytoolchain\arm-none-eabi\include\c++\10.2.1\cmath ****   template<typename _Tp, typename _Up>
 413:c:\program files\daisytoolchain\arm-none-eabi\include\c++\10.2.1\cmath ****     inline _GLIBCXX_CONSTEXPR
 414:c:\program files\daisytoolchain\arm-none-eabi\include\c++\10.2.1\cmath ****     typename __gnu_cxx::__promote_2<_Tp, _Up>::__type
 415:c:\program files\daisytoolchain\arm-none-eabi\include\c++\10.2.1\cmath ****     pow(_Tp __x, _Up __y)
 416:c:\program files\daisytoolchain\arm-none-eabi\include\c++\10.2.1\cmath ****     {
 417:c:\program files\daisytoolchain\arm-none-eabi\include\c++\10.2.1\cmath ****       typedef typename __gnu_cxx::__promote_2<_Tp, _Up>::__type __type;
 418:c:\program files\daisytoolchain\arm-none-eabi\include\c++\10.2.1\cmath ****       return pow(__type(__x), __type(__y));
 419:c:\program files\daisytoolchain\arm-none-eabi\include\c++\10.2.1\cmath ****     }
 420:c:\program files\daisytoolchain\arm-none-eabi\include\c++\10.2.1\cmath **** 
 421:c:\program files\daisytoolchain\arm-none-eabi\include\c++\10.2.1\cmath ****   using ::sin;
ARM GAS  C:\Users\galla\AppData\Local\Temp\ccPx7zrr.s 			page 38


 422:c:\program files\daisytoolchain\arm-none-eabi\include\c++\10.2.1\cmath **** 
 423:c:\program files\daisytoolchain\arm-none-eabi\include\c++\10.2.1\cmath **** #ifndef __CORRECT_ISO_CPP_MATH_H_PROTO
 424:c:\program files\daisytoolchain\arm-none-eabi\include\c++\10.2.1\cmath ****   inline _GLIBCXX_CONSTEXPR float
 425:c:\program files\daisytoolchain\arm-none-eabi\include\c++\10.2.1\cmath ****   sin(float __x)
 426:c:\program files\daisytoolchain\arm-none-eabi\include\c++\10.2.1\cmath ****   { return __builtin_sinf(__x); }
 427:c:\program files\daisytoolchain\arm-none-eabi\include\c++\10.2.1\cmath **** 
 428:c:\program files\daisytoolchain\arm-none-eabi\include\c++\10.2.1\cmath ****   inline _GLIBCXX_CONSTEXPR long double
 429:c:\program files\daisytoolchain\arm-none-eabi\include\c++\10.2.1\cmath ****   sin(long double __x)
 430:c:\program files\daisytoolchain\arm-none-eabi\include\c++\10.2.1\cmath ****   { return __builtin_sinl(__x); }
 431:c:\program files\daisytoolchain\arm-none-eabi\include\c++\10.2.1\cmath **** #endif
 432:c:\program files\daisytoolchain\arm-none-eabi\include\c++\10.2.1\cmath **** 
 433:c:\program files\daisytoolchain\arm-none-eabi\include\c++\10.2.1\cmath ****   template<typename _Tp>
 434:c:\program files\daisytoolchain\arm-none-eabi\include\c++\10.2.1\cmath ****     inline _GLIBCXX_CONSTEXPR
 435:c:\program files\daisytoolchain\arm-none-eabi\include\c++\10.2.1\cmath ****     typename __gnu_cxx::__enable_if<__is_integer<_Tp>::__value, 
 436:c:\program files\daisytoolchain\arm-none-eabi\include\c++\10.2.1\cmath ****                                     double>::__type
 437:c:\program files\daisytoolchain\arm-none-eabi\include\c++\10.2.1\cmath ****     sin(_Tp __x)
 438:c:\program files\daisytoolchain\arm-none-eabi\include\c++\10.2.1\cmath ****     { return __builtin_sin(__x); }
 439:c:\program files\daisytoolchain\arm-none-eabi\include\c++\10.2.1\cmath **** 
 440:c:\program files\daisytoolchain\arm-none-eabi\include\c++\10.2.1\cmath ****   using ::sinh;
 441:c:\program files\daisytoolchain\arm-none-eabi\include\c++\10.2.1\cmath **** 
 442:c:\program files\daisytoolchain\arm-none-eabi\include\c++\10.2.1\cmath **** #ifndef __CORRECT_ISO_CPP_MATH_H_PROTO
 443:c:\program files\daisytoolchain\arm-none-eabi\include\c++\10.2.1\cmath ****   inline _GLIBCXX_CONSTEXPR float
 444:c:\program files\daisytoolchain\arm-none-eabi\include\c++\10.2.1\cmath ****   sinh(float __x)
 445:c:\program files\daisytoolchain\arm-none-eabi\include\c++\10.2.1\cmath ****   { return __builtin_sinhf(__x); }
 650              		.loc 16 445 27 view .LVU144
 651 0092 B0EE490A 		vmov.f32	s0, s18
 652              	.LVL43:
 653              		.loc 16 445 27 view .LVU145
 654              	.LBE396:
 655              	.LBI395:
 444:c:\program files\daisytoolchain\arm-none-eabi\include\c++\10.2.1\cmath ****   { return __builtin_sinhf(__x); }
 656              		.loc 16 444 3 is_stmt 1 view .LVU146
 657              	.LBB397:
 658              		.loc 16 445 5 view .LVU147
 659              		.loc 16 445 27 is_stmt 0 view .LVU148
 660 0096 FFF7FEFF 		bl	sinhf
 661              	.LVL44:
 662              		.loc 16 445 27 view .LVU149
 663              	.LBE397:
 664              	.LBE395:
 104:Blink.cpp     **** 
 665              		.loc 15 104 5 is_stmt 1 view .LVU150
 106:Blink.cpp     ****     hp.SetFreq(100+(intone*100));
 666              		.loc 15 106 23 is_stmt 0 view .LVU151
 667 009a 3AEEE97A 		vsub.f32	s14, s21, s19
 103:Blink.cpp     ****     float out = term3*coth*-1/2 + in;
 668              		.loc 15 103 27 view .LVU152
 669 009e C8EE807A 		vdiv.f32	s15, s17, s0
 107:Blink.cpp     ****     lp.SetFreq((15000*tone)+200);
 670              		.loc 15 107 15 view .LVU153
 671 00a2 DFED196A 		vldr.32	s13, .L16+16
 672 00a6 2046     		mov	r0, r4
 673              	.LBB398:
 674              	.LBB399:
 675              		.loc 17 76 31 view .LVU154
 676 00a8 B0EEC77A 		vabs.f32	s14, s14
 677              	.LBE399:
ARM GAS  C:\Users\galla\AppData\Local\Temp\ccPx7zrr.s 			page 39


 678              	.LBE398:
 104:Blink.cpp     **** 
 679              		.loc 15 104 11 view .LVU155
 680 00ac B6EE006A 		vmov.f32	s12, #5.0e-1
 107:Blink.cpp     ****     lp.SetFreq((15000*tone)+200);
 681              		.loc 15 107 15 view .LVU156
 682 00b0 E7EE266A 		vfma.f32	s13, s14, s13
 683 00b4 B0EE660A 		vmov.f32	s0, s13
 684              	.LVL45:
 103:Blink.cpp     ****     float out = term3*coth*-1/2 + in;
 685              		.loc 15 103 40 view .LVU157
 686 00b8 77EEE97A 		vsub.f32	s15, s15, s19
 687              	.LVL46:
 104:Blink.cpp     **** 
 688              		.loc 15 104 27 view .LVU158
 689 00bc 28EE678A 		vnmul.f32	s16, s16, s15
 690              	.LVL47:
 104:Blink.cpp     **** 
 691              		.loc 15 104 11 view .LVU159
 692 00c0 A8EE06AA 		vfma.f32	s20, s16, s12
 693              	.LVL48:
 106:Blink.cpp     ****     hp.SetFreq(100+(intone*100));
 694              		.loc 15 106 5 is_stmt 1 view .LVU160
 695              	.LBB401:
 696              	.LBI398:
  75:c:\program files\daisytoolchain\arm-none-eabi\include\c++\10.2.1\bits\std_abs.h ****   { return __builtin_fabsf(__x); }
 697              		.loc 17 75 3 view .LVU161
 698              	.LBB400:
 699              		.loc 17 76 5 view .LVU162
 700              		.loc 17 76 5 is_stmt 0 view .LVU163
 701              	.LBE400:
 702              	.LBE401:
 107:Blink.cpp     ****     lp.SetFreq((15000*tone)+200);
 703              		.loc 15 107 5 is_stmt 1 view .LVU164
 107:Blink.cpp     ****     lp.SetFreq((15000*tone)+200);
 704              		.loc 15 107 15 is_stmt 0 view .LVU165
 705 00c4 FFF7FEFF 		bl	_ZN7daisysp12LadderFilter7SetFreqEf
 706              	.LVL49:
 707              		.loc 15 108 5 is_stmt 1 view .LVU166
 708              		.loc 15 108 15 is_stmt 0 view .LVU167
 709 00c8 DFED107A 		vldr.32	s15, .L16+20
 710 00cc 2846     		mov	r0, r5
 711 00ce 9FED100A 		vldr.32	s0, .L16+24
 712 00d2 AAEEA70A 		vfma.f32	s0, s21, s15
 713 00d6 FFF7FEFF 		bl	_ZN7daisysp12LadderFilter7SetFreqEf
 714              	.LVL50:
 109:Blink.cpp     **** 
 110:Blink.cpp     ****     return hp.Process(lp.Process(out));
 715              		.loc 15 110 5 is_stmt 1 view .LVU168
 716              		.loc 15 110 22 is_stmt 0 view .LVU169
 717 00da 2846     		mov	r0, r5
 718 00dc B0EE4A0A 		vmov.f32	s0, s20
 719 00e0 FFF7FEFF 		bl	_ZN7daisysp12LadderFilter7ProcessEf
 720              	.LVL51:
 721 00e4 2046     		mov	r0, r4
 111:Blink.cpp     **** }
 722              		.loc 15 111 1 view .LVU170
ARM GAS  C:\Users\galla\AppData\Local\Temp\ccPx7zrr.s 			page 40


 723 00e6 BDEC088B 		vldm	sp!, {d8-d11}
 724              		.cfi_restore 86
 725              		.cfi_restore 87
 726              		.cfi_restore 84
 727              		.cfi_restore 85
 728              		.cfi_restore 82
 729              		.cfi_restore 83
 730              		.cfi_restore 80
 731              		.cfi_restore 81
 732              		.cfi_def_cfa_offset 16
 733              	.LVL52:
 734              		.loc 15 111 1 view .LVU171
 735 00ea BDE83840 		pop	{r3, r4, r5, lr}
 736              		.cfi_restore 14
 737              		.cfi_restore 5
 738              		.cfi_restore 4
 739              		.cfi_restore 3
 740              		.cfi_def_cfa_offset 0
 110:Blink.cpp     **** }
 741              		.loc 15 110 22 view .LVU172
 742 00ee FFF7FEBF 		b	_ZN7daisysp12LadderFilter7ProcessEf
 743              	.LVL53:
 744              	.L17:
 745 00f2 00BFAFF3 		.align	3
 745      0080
 746              	.L16:
 747 00f8 CDCCCCCC 		.word	-858993459
 748 00fc CCCCEC3F 		.word	1072483532
 749 0100 00000000 		.word	.LANCHOR0
 750 0104 00000000 		.word	.LANCHOR1
 751 0108 0000C842 		.word	1120403456
 752 010c 00606A46 		.word	1181376512
 753 0110 00004843 		.word	1128792064
 754              		.cfi_endproc
 755              	.LFE4897:
 757              		.section	.text._Z14effectsProcessfh,"ax",%progbits
 758              		.align	1
 759              		.p2align 2,,3
 760              		.global	_Z14effectsProcessfh
 761              		.syntax unified
 762              		.thumb
 763              		.thumb_func
 764              		.fpu fpv5-d16
 766              	_Z14effectsProcessfh:
 767              	.LVL54:
 768              	.LFB4898:
 112:Blink.cpp     **** 
 113:Blink.cpp     **** 
 114:Blink.cpp     **** //process the samples
 115:Blink.cpp     **** float effectsProcess(float in, uint8_t effect){
 769              		.loc 15 115 47 is_stmt 1 view -0
 770              		.cfi_startproc
 771              		@ args = 0, pretend = 0, frame = 0
 772              		@ frame_needed = 0, uses_anonymous_args = 0
 116:Blink.cpp     ****     wah = abs(1-hw.adc.GetFloat(3));
 773              		.loc 15 116 5 view .LVU174
 115:Blink.cpp     ****     wah = abs(1-hw.adc.GetFloat(3));
ARM GAS  C:\Users\galla\AppData\Local\Temp\ccPx7zrr.s 			page 41


 774              		.loc 15 115 47 is_stmt 0 view .LVU175
 775 0000 70B5     		push	{r4, r5, r6, lr}
 776              		.cfi_def_cfa_offset 16
 777              		.cfi_offset 4, -16
 778              		.cfi_offset 5, -12
 779              		.cfi_offset 6, -8
 780              		.cfi_offset 14, -4
 781              		.loc 15 116 32 view .LVU176
 782 0002 0321     		movs	r1, #3
 115:Blink.cpp     ****     wah = abs(1-hw.adc.GetFloat(3));
 783              		.loc 15 115 47 view .LVU177
 784 0004 0446     		mov	r4, r0
 785              		.loc 15 116 32 view .LVU178
 786 0006 A148     		ldr	r0, .L50
 787              	.LVL55:
 115:Blink.cpp     ****     wah = abs(1-hw.adc.GetFloat(3));
 788              		.loc 15 115 47 view .LVU179
 789 0008 2DED028B 		vpush.64	{d8}
 790              		.cfi_def_cfa_offset 24
 791              		.cfi_offset 80, -24
 792              		.cfi_offset 81, -20
 115:Blink.cpp     ****     wah = abs(1-hw.adc.GetFloat(3));
 793              		.loc 15 115 47 view .LVU180
 794 000c B0EE408A 		vmov.f32	s16, s0
 795              		.loc 15 116 32 view .LVU181
 796 0010 FFF7FEFF 		bl	_ZNK5daisy9AdcHandle8GetFloatEh
 797              	.LVL56:
 798              	.LBB434:
 799              	.LBI434:
  75:c:\program files\daisytoolchain\arm-none-eabi\include\c++\10.2.1\bits\std_abs.h ****   { return __builtin_fabsf(__x); }
 800              		.loc 17 75 3 is_stmt 1 view .LVU182
 801              	.LBB435:
 802              		.loc 17 76 5 view .LVU183
 803              	.LBE435:
 804              	.LBE434:
 805              		.loc 15 116 14 is_stmt 0 view .LVU184
 806 0014 B7EE007A 		vmov.f32	s14, #1.0e+0
 117:Blink.cpp     ****     wahflt.SetFreq(1200*wah+400);
 807              		.loc 15 117 19 view .LVU185
 808 0018 9FED9D6A 		vldr.32	s12, .L50+4
 809 001c DFED9D6A 		vldr.32	s13, .L50+8
 116:Blink.cpp     ****     wahflt.SetFreq(1200*wah+400);
 810              		.loc 15 116 9 view .LVU186
 811 0020 9D4B     		ldr	r3, .L50+12
 116:Blink.cpp     ****     wahflt.SetFreq(1200*wah+400);
 812              		.loc 15 116 14 view .LVU187
 813 0022 77EE407A 		vsub.f32	s15, s14, s0
 814              	.LVL57:
 815              		.loc 15 117 19 view .LVU188
 816 0026 9D48     		ldr	r0, .L50+16
 817              	.LBB437:
 818              	.LBB436:
 819              		.loc 17 76 31 view .LVU189
 820 0028 F0EEE77A 		vabs.f32	s15, s15
 821              	.LVL58:
 822              		.loc 17 76 31 view .LVU190
 823              	.LBE436:
ARM GAS  C:\Users\galla\AppData\Local\Temp\ccPx7zrr.s 			page 42


 824              	.LBE437:
 825              		.loc 15 117 19 view .LVU191
 826 002c E7EE866A 		vfma.f32	s13, s15, s12
 116:Blink.cpp     ****     wahflt.SetFreq(1200*wah+400);
 827              		.loc 15 116 9 view .LVU192
 828 0030 C3ED007A 		vstr.32	s15, [r3]
 829              		.loc 15 117 5 is_stmt 1 view .LVU193
 830              		.loc 15 117 19 is_stmt 0 view .LVU194
 831 0034 B0EE660A 		vmov.f32	s0, s13
 832 0038 FFF7FEFF 		bl	_ZN7daisysp12LadderFilter7SetFreqEf
 833              	.LVL59:
 118:Blink.cpp     ****     switch (effect)
 834              		.loc 15 118 5 is_stmt 1 view .LVU195
 835 003c 072C     		cmp	r4, #7
 836 003e 19D8     		bhi	.L38
 837 0040 DFE804F0 		tbb	[pc, r4]
 838              	.L21:
 839 0044 0D       		.byte	(.L28-.L21)/2
 840 0045 1D       		.byte	(.L27-.L21)/2
 841 0046 38       		.byte	(.L26-.L21)/2
 842 0047 8F       		.byte	(.L25-.L21)/2
 843 0048 98       		.byte	(.L24-.L21)/2
 844 0049 A1       		.byte	(.L23-.L21)/2
 845 004a AA       		.byte	(.L22-.L21)/2
 846 004b 04       		.byte	(.L20-.L21)/2
 847              		.p2align 1
 848              	.L20:
 119:Blink.cpp     ****     {
 120:Blink.cpp     ****     case 0:
 121:Blink.cpp     ****         if(profile == 0){
 122:Blink.cpp     ****             return distort(in, p1dingain, p1doutgain, p1dtone);
 123:Blink.cpp     ****         } else if(profile == 1){
 124:Blink.cpp     ****             return distort(in, p2dingain, p2doutgain, p2dtone);
 125:Blink.cpp     ****         } else if(profile == 2){
 126:Blink.cpp     ****             return distort(in, p3dingain, p3doutgain, p3dtone);
 127:Blink.cpp     ****         }
 128:Blink.cpp     ****         break;
 129:Blink.cpp     ****     case 1:
 130:Blink.cpp     ****         if(profile == 0){
 131:Blink.cpp     ****             return Fuzz(in, p1fingain, p1fuzz, p1ftone);
 132:Blink.cpp     ****         } else if(profile == 1){
 133:Blink.cpp     ****             return Fuzz(in, p2fingain, p2fuzz, p2ftone);
 134:Blink.cpp     ****         } else if(profile == 2){
 135:Blink.cpp     ****             return Fuzz(in, p3fingain, p3fuzz, p3ftone);
 136:Blink.cpp     ****         }
 137:Blink.cpp     ****         break;
 138:Blink.cpp     ****     case 2:
 139:Blink.cpp     ****         if(profile == 0){
 140:Blink.cpp     ****             return in + del1.Process(in);
 141:Blink.cpp     ****         } else if(profile == 1){
 142:Blink.cpp     ****             return in + del2.Process(in);
 143:Blink.cpp     ****         } else if(profile == 2){
 144:Blink.cpp     ****             return in + del3.Process(in);
 145:Blink.cpp     ****         }
 146:Blink.cpp     ****         break;
 147:Blink.cpp     ****     case 3:
 148:Blink.cpp     ****         return ch.Process(in);
ARM GAS  C:\Users\galla\AppData\Local\Temp\ccPx7zrr.s 			page 43


 149:Blink.cpp     ****         break;
 150:Blink.cpp     ****     case 4:
 151:Blink.cpp     ****         return fl.Process(in);
 152:Blink.cpp     ****         break;
 153:Blink.cpp     ****     case 5:
 154:Blink.cpp     ****         return wahflt.Process(in);
 155:Blink.cpp     ****         break;
 156:Blink.cpp     ****     case 6:
 157:Blink.cpp     ****         return trem.Process(in);
 158:Blink.cpp     ****         break;
 849              		.loc 15 158 9 view .LVU196
 159:Blink.cpp     ****     case 7:
 850              		.loc 15 159 5 view .LVU197
 160:Blink.cpp     ****         return ph.Process(in);
 851              		.loc 15 160 9 view .LVU198
 852              		.loc 15 160 26 is_stmt 0 view .LVU199
 853 004c B0EE480A 		vmov.f32	s0, s16
 854 0050 9348     		ldr	r0, .L50+20
 161:Blink.cpp     ****         break;
 162:Blink.cpp     ****     default:
 163:Blink.cpp     ****         break;
 164:Blink.cpp     ****     }
 165:Blink.cpp     ****     return in;
 166:Blink.cpp     **** }
 855              		.loc 15 166 1 view .LVU200
 856 0052 BDEC028B 		vldm	sp!, {d8}
 857              		.cfi_remember_state
 858              		.cfi_restore 80
 859              		.cfi_restore 81
 860              		.cfi_def_cfa_offset 16
 861              	.LVL60:
 862              		.loc 15 166 1 view .LVU201
 863 0056 BDE87040 		pop	{r4, r5, r6, lr}
 864              		.cfi_restore 14
 865              		.cfi_restore 6
 866              		.cfi_restore 5
 867              		.cfi_restore 4
 868              		.cfi_def_cfa_offset 0
 160:Blink.cpp     ****         return ph.Process(in);
 869              		.loc 15 160 26 view .LVU202
 870 005a FFF7FEBF 		b	_ZN7daisysp6Phaser7ProcessEf
 871              	.LVL61:
 872              	.L28:
 873              		.cfi_restore_state
 120:Blink.cpp     ****         if(profile == 0){
 874              		.loc 15 120 5 is_stmt 1 view .LVU203
 121:Blink.cpp     ****             return distort(in, p1dingain, p1doutgain, p1dtone);
 875              		.loc 15 121 9 view .LVU204
 121:Blink.cpp     ****             return distort(in, p1dingain, p1doutgain, p1dtone);
 876              		.loc 15 121 20 is_stmt 0 view .LVU205
 877 005e 914B     		ldr	r3, .L50+24
 878 0060 1B78     		ldrb	r3, [r3]	@ zero_extendqisi2
 121:Blink.cpp     ****             return distort(in, p1dingain, p1doutgain, p1dtone);
 879              		.loc 15 121 9 view .LVU206
 880 0062 002B     		cmp	r3, #0
 881 0064 00F00381 		beq	.L43
 123:Blink.cpp     ****             return distort(in, p2dingain, p2doutgain, p2dtone);
ARM GAS  C:\Users\galla\AppData\Local\Temp\ccPx7zrr.s 			page 44


 882              		.loc 15 123 16 is_stmt 1 view .LVU207
 883 0068 012B     		cmp	r3, #1
 884 006a 00F00481 		beq	.L44
 125:Blink.cpp     ****             return distort(in, p3dingain, p3doutgain, p3dtone);
 885              		.loc 15 125 16 view .LVU208
 886 006e 022B     		cmp	r3, #2
 887 0070 00F09B80 		beq	.L45
 888              	.L38:
 165:Blink.cpp     **** }
 889              		.loc 15 165 12 is_stmt 0 view .LVU209
 890 0074 B0EE480A 		vmov.f32	s0, s16
 891              	.L18:
 892              		.loc 15 166 1 view .LVU210
 893 0078 BDEC028B 		vldm	sp!, {d8}
 894              		.cfi_remember_state
 895              		.cfi_restore 80
 896              		.cfi_restore 81
 897              		.cfi_def_cfa_offset 16
 898              	.LVL62:
 899              		.loc 15 166 1 view .LVU211
 900 007c 70BD     		pop	{r4, r5, r6, pc}
 901              	.LVL63:
 902              	.L27:
 903              		.cfi_restore_state
 129:Blink.cpp     ****         if(profile == 0){
 904              		.loc 15 129 5 is_stmt 1 view .LVU212
 130:Blink.cpp     ****             return Fuzz(in, p1fingain, p1fuzz, p1ftone);
 905              		.loc 15 130 9 view .LVU213
 130:Blink.cpp     ****             return Fuzz(in, p1fingain, p1fuzz, p1ftone);
 906              		.loc 15 130 20 is_stmt 0 view .LVU214
 907 007e 894B     		ldr	r3, .L50+24
 908 0080 1B78     		ldrb	r3, [r3]	@ zero_extendqisi2
 130:Blink.cpp     ****             return Fuzz(in, p1fingain, p1fuzz, p1ftone);
 909              		.loc 15 130 9 view .LVU215
 910 0082 002B     		cmp	r3, #0
 911 0084 00F0EF80 		beq	.L46
 132:Blink.cpp     ****             return Fuzz(in, p2fingain, p2fuzz, p2ftone);
 912              		.loc 15 132 16 is_stmt 1 view .LVU216
 913 0088 012B     		cmp	r3, #1
 914 008a 00F0FA80 		beq	.L47
 134:Blink.cpp     ****             return Fuzz(in, p3fingain, p3fuzz, p3ftone);
 915              		.loc 15 134 16 view .LVU217
 916 008e 022B     		cmp	r3, #2
 917 0090 F0D1     		bne	.L38
 135:Blink.cpp     ****         }
 918              		.loc 15 135 13 view .LVU218
 135:Blink.cpp     ****         }
 919              		.loc 15 135 24 is_stmt 0 view .LVU219
 920 0092 8549     		ldr	r1, .L50+28
 921 0094 854A     		ldr	r2, .L50+32
 922 0096 864B     		ldr	r3, .L50+36
 923              	.L42:
 133:Blink.cpp     ****         } else if(profile == 2){
 924              		.loc 15 133 24 view .LVU220
 925 0098 B0EE480A 		vmov.f32	s0, s16
 926 009c D1ED001A 		vldr.32	s3, [r1]
 927 00a0 92ED001A 		vldr.32	s2, [r2]
ARM GAS  C:\Users\galla\AppData\Local\Temp\ccPx7zrr.s 			page 45


 928 00a4 D3ED000A 		vldr.32	s1, [r3]
 929              		.loc 15 166 1 view .LVU221
 930 00a8 BDEC028B 		vldm	sp!, {d8}
 931              		.cfi_remember_state
 932              		.cfi_restore 80
 933              		.cfi_restore 81
 934              		.cfi_def_cfa_offset 16
 935              	.LVL64:
 936              		.loc 15 166 1 view .LVU222
 937 00ac BDE87040 		pop	{r4, r5, r6, lr}
 938              		.cfi_restore 14
 939              		.cfi_restore 6
 940              		.cfi_restore 5
 941              		.cfi_restore 4
 942              		.cfi_def_cfa_offset 0
 133:Blink.cpp     ****         } else if(profile == 2){
 943              		.loc 15 133 24 view .LVU223
 944 00b0 FFF7FEBF 		b	_Z4Fuzzffff
 945              	.LVL65:
 946              	.L26:
 947              		.cfi_restore_state
 138:Blink.cpp     ****         if(profile == 0){
 948              		.loc 15 138 5 is_stmt 1 view .LVU224
 139:Blink.cpp     ****             return in + del1.Process(in);
 949              		.loc 15 139 9 view .LVU225
 139:Blink.cpp     ****             return in + del1.Process(in);
 950              		.loc 15 139 20 is_stmt 0 view .LVU226
 951 00b4 7B4B     		ldr	r3, .L50+24
 952 00b6 1B78     		ldrb	r3, [r3]	@ zero_extendqisi2
 139:Blink.cpp     ****             return in + del1.Process(in);
 953              		.loc 15 139 9 view .LVU227
 954 00b8 002B     		cmp	r3, #0
 955 00ba 00F08780 		beq	.L48
 141:Blink.cpp     ****             return in + del2.Process(in);
 956              		.loc 15 141 16 is_stmt 1 view .LVU228
 957 00be 012B     		cmp	r3, #1
 958 00c0 00F0DD80 		beq	.L49
 143:Blink.cpp     ****             return in + del3.Process(in);
 959              		.loc 15 143 16 view .LVU229
 960 00c4 022B     		cmp	r3, #2
 961 00c6 D5D1     		bne	.L38
 144:Blink.cpp     ****         }
 962              		.loc 15 144 13 view .LVU230
 963              	.LVL66:
 964              	.LBB438:
 965              	.LBI438:
  65:Blink.cpp     ****     {
 966              		.loc 15 65 11 view .LVU231
 967              	.LBB439:
  68:Blink.cpp     ****         del->SetDelay(currentDelay);
 968              		.loc 15 68 9 view .LVU232
 969              	.LBB440:
 970              	.LBI440:
 971              		.file 18 "../../DaisySP/Source/Utility/dsp.h"
   1:../../DaisySP/Source/Utility/dsp.h **** /*
   2:../../DaisySP/Source/Utility/dsp.h **** Copyright (c) 2020 Electrosmith, Corp, Emilie Gillet
   3:../../DaisySP/Source/Utility/dsp.h **** 
ARM GAS  C:\Users\galla\AppData\Local\Temp\ccPx7zrr.s 			page 46


   4:../../DaisySP/Source/Utility/dsp.h **** Use of this source code is governed by an MIT-style
   5:../../DaisySP/Source/Utility/dsp.h **** license that can be found in the LICENSE file or at
   6:../../DaisySP/Source/Utility/dsp.h **** https://opensource.org/licenses/MIT.
   7:../../DaisySP/Source/Utility/dsp.h **** */
   8:../../DaisySP/Source/Utility/dsp.h **** 
   9:../../DaisySP/Source/Utility/dsp.h **** /** Helpful defines, functions, and other utilities for use in/with daisysp modules.
  10:../../DaisySP/Source/Utility/dsp.h **** */
  11:../../DaisySP/Source/Utility/dsp.h **** #pragma once
  12:../../DaisySP/Source/Utility/dsp.h **** #ifndef DSY_CORE_DSP
  13:../../DaisySP/Source/Utility/dsp.h **** #define DSY_CORE_DSP
  14:../../DaisySP/Source/Utility/dsp.h **** #include <cassert>
  15:../../DaisySP/Source/Utility/dsp.h **** #include <cstdint>
  16:../../DaisySP/Source/Utility/dsp.h **** #include <random>
  17:../../DaisySP/Source/Utility/dsp.h **** #include <cmath>
  18:../../DaisySP/Source/Utility/dsp.h **** 
  19:../../DaisySP/Source/Utility/dsp.h **** /** PIs
  20:../../DaisySP/Source/Utility/dsp.h **** */
  21:../../DaisySP/Source/Utility/dsp.h **** #define PI_F 3.1415927410125732421875f
  22:../../DaisySP/Source/Utility/dsp.h **** #define TWOPI_F (2.0f * PI_F)
  23:../../DaisySP/Source/Utility/dsp.h **** #define HALFPI_F (PI_F * 0.5f)
  24:../../DaisySP/Source/Utility/dsp.h **** #define DSY_MIN(in, mn) (in < mn ? in : mn)
  25:../../DaisySP/Source/Utility/dsp.h **** #define DSY_MAX(in, mx) (in > mx ? in : mx)
  26:../../DaisySP/Source/Utility/dsp.h **** #define DSY_CLAMP(in, mn, mx) (DSY_MIN(DSY_MAX(in, mn), mx))
  27:../../DaisySP/Source/Utility/dsp.h **** #define DSY_COUNTOF(_arr) (sizeof(_arr) / sizeof(_arr[0]))
  28:../../DaisySP/Source/Utility/dsp.h **** 
  29:../../DaisySP/Source/Utility/dsp.h **** namespace daisysp
  30:../../DaisySP/Source/Utility/dsp.h **** {
  31:../../DaisySP/Source/Utility/dsp.h **** //Avoids division for random floats. e.g. rand() * kRandFrac
  32:../../DaisySP/Source/Utility/dsp.h **** static constexpr float kRandFrac = 1.f / (float)RAND_MAX;
  33:../../DaisySP/Source/Utility/dsp.h **** 
  34:../../DaisySP/Source/Utility/dsp.h **** //Convert from semitones to other units. e.g. 2 ^ (kOneTwelfth * x)
  35:../../DaisySP/Source/Utility/dsp.h **** static constexpr float kOneTwelfth = 1.f / 12.f;
  36:../../DaisySP/Source/Utility/dsp.h **** 
  37:../../DaisySP/Source/Utility/dsp.h **** /** efficient floating point min/max
  38:../../DaisySP/Source/Utility/dsp.h **** c/o stephen mccaul
  39:../../DaisySP/Source/Utility/dsp.h **** */
  40:../../DaisySP/Source/Utility/dsp.h **** inline float fmax(float a, float b)
  41:../../DaisySP/Source/Utility/dsp.h **** {
  42:../../DaisySP/Source/Utility/dsp.h ****     float r;
  43:../../DaisySP/Source/Utility/dsp.h **** #ifdef __arm__
  44:../../DaisySP/Source/Utility/dsp.h ****     asm("vmaxnm.f32 %[d], %[n], %[m]" : [d] "=t"(r) : [n] "t"(a), [m] "t"(b) :);
  45:../../DaisySP/Source/Utility/dsp.h **** #else
  46:../../DaisySP/Source/Utility/dsp.h ****     r = (a > b) ? a : b;
  47:../../DaisySP/Source/Utility/dsp.h **** #endif // __arm__
  48:../../DaisySP/Source/Utility/dsp.h ****     return r;
  49:../../DaisySP/Source/Utility/dsp.h **** }
  50:../../DaisySP/Source/Utility/dsp.h **** 
  51:../../DaisySP/Source/Utility/dsp.h **** inline float fmin(float a, float b)
  52:../../DaisySP/Source/Utility/dsp.h **** {
  53:../../DaisySP/Source/Utility/dsp.h ****     float r;
  54:../../DaisySP/Source/Utility/dsp.h **** #ifdef __arm__
  55:../../DaisySP/Source/Utility/dsp.h ****     asm("vminnm.f32 %[d], %[n], %[m]" : [d] "=t"(r) : [n] "t"(a), [m] "t"(b) :);
  56:../../DaisySP/Source/Utility/dsp.h **** #else
  57:../../DaisySP/Source/Utility/dsp.h ****     r = (a < b) ? a : b;
  58:../../DaisySP/Source/Utility/dsp.h **** #endif // __arm__
  59:../../DaisySP/Source/Utility/dsp.h ****     return r;
  60:../../DaisySP/Source/Utility/dsp.h **** }
ARM GAS  C:\Users\galla\AppData\Local\Temp\ccPx7zrr.s 			page 47


  61:../../DaisySP/Source/Utility/dsp.h **** 
  62:../../DaisySP/Source/Utility/dsp.h **** /** quick fp clamp
  63:../../DaisySP/Source/Utility/dsp.h **** */
  64:../../DaisySP/Source/Utility/dsp.h **** inline float fclamp(float in, float min, float max)
  65:../../DaisySP/Source/Utility/dsp.h **** {
  66:../../DaisySP/Source/Utility/dsp.h ****     return fmin(fmax(in, min), max);
  67:../../DaisySP/Source/Utility/dsp.h **** }
  68:../../DaisySP/Source/Utility/dsp.h **** 
  69:../../DaisySP/Source/Utility/dsp.h **** /** From Musicdsp.org "Fast power and root estimates for 32bit floats)
  70:../../DaisySP/Source/Utility/dsp.h **** Original code by Stefan Stenzel
  71:../../DaisySP/Source/Utility/dsp.h **** These are approximations
  72:../../DaisySP/Source/Utility/dsp.h **** */
  73:../../DaisySP/Source/Utility/dsp.h **** inline float fastpower(float f, int n)
  74:../../DaisySP/Source/Utility/dsp.h **** {
  75:../../DaisySP/Source/Utility/dsp.h ****     long *lp, l;
  76:../../DaisySP/Source/Utility/dsp.h ****     lp = (long *)(&f);
  77:../../DaisySP/Source/Utility/dsp.h ****     l  = *lp;
  78:../../DaisySP/Source/Utility/dsp.h ****     l -= 0x3F800000;
  79:../../DaisySP/Source/Utility/dsp.h ****     l <<= (n - 1);
  80:../../DaisySP/Source/Utility/dsp.h ****     l += 0x3F800000;
  81:../../DaisySP/Source/Utility/dsp.h ****     *lp = l;
  82:../../DaisySP/Source/Utility/dsp.h ****     return f;
  83:../../DaisySP/Source/Utility/dsp.h **** }
  84:../../DaisySP/Source/Utility/dsp.h **** 
  85:../../DaisySP/Source/Utility/dsp.h **** inline float fastroot(float f, int n)
  86:../../DaisySP/Source/Utility/dsp.h **** {
  87:../../DaisySP/Source/Utility/dsp.h ****     long *lp, l;
  88:../../DaisySP/Source/Utility/dsp.h ****     lp = (long *)(&f);
  89:../../DaisySP/Source/Utility/dsp.h ****     l  = *lp;
  90:../../DaisySP/Source/Utility/dsp.h ****     l -= 0x3F800000;
  91:../../DaisySP/Source/Utility/dsp.h ****     l >>= (n - 1);
  92:../../DaisySP/Source/Utility/dsp.h ****     l += 0x3F800000;
  93:../../DaisySP/Source/Utility/dsp.h ****     *lp = l;
  94:../../DaisySP/Source/Utility/dsp.h ****     return f;
  95:../../DaisySP/Source/Utility/dsp.h **** }
  96:../../DaisySP/Source/Utility/dsp.h **** 
  97:../../DaisySP/Source/Utility/dsp.h **** /** Significantly more efficient than fmodf(x, 1.0f) for calculating
  98:../../DaisySP/Source/Utility/dsp.h ****  *  the decimal part of a floating point value.
  99:../../DaisySP/Source/Utility/dsp.h ****  */
 100:../../DaisySP/Source/Utility/dsp.h **** inline float fastmod1f(float x)
 101:../../DaisySP/Source/Utility/dsp.h **** {
 102:../../DaisySP/Source/Utility/dsp.h ****     return x - static_cast<int>(x);
 103:../../DaisySP/Source/Utility/dsp.h **** }
 104:../../DaisySP/Source/Utility/dsp.h **** 
 105:../../DaisySP/Source/Utility/dsp.h **** /** From http://openaudio.blogspot.com/2017/02/faster-log10-and-pow.html
 106:../../DaisySP/Source/Utility/dsp.h **** No approximation, pow10f(x) gives a 90% speed increase over powf(10.f, x)
 107:../../DaisySP/Source/Utility/dsp.h **** */
 108:../../DaisySP/Source/Utility/dsp.h **** inline float pow10f(float f)
 109:../../DaisySP/Source/Utility/dsp.h **** {
 110:../../DaisySP/Source/Utility/dsp.h ****     return expf(2.302585092994046f * f);
 111:../../DaisySP/Source/Utility/dsp.h **** }
 112:../../DaisySP/Source/Utility/dsp.h **** 
 113:../../DaisySP/Source/Utility/dsp.h **** /* Original code for fastlog2f by Dr. Paul Beckmann from the ARM community forum, adapted from the 
 114:../../DaisySP/Source/Utility/dsp.h **** About 25% performance increase over std::log10f
 115:../../DaisySP/Source/Utility/dsp.h **** */
 116:../../DaisySP/Source/Utility/dsp.h **** inline float fastlog2f(float f)
 117:../../DaisySP/Source/Utility/dsp.h **** {
ARM GAS  C:\Users\galla\AppData\Local\Temp\ccPx7zrr.s 			page 48


 118:../../DaisySP/Source/Utility/dsp.h ****     float frac;
 119:../../DaisySP/Source/Utility/dsp.h ****     int   exp;
 120:../../DaisySP/Source/Utility/dsp.h ****     frac = frexpf(fabsf(f), &exp);
 121:../../DaisySP/Source/Utility/dsp.h ****     f    = 1.23149591368684f;
 122:../../DaisySP/Source/Utility/dsp.h ****     f *= frac;
 123:../../DaisySP/Source/Utility/dsp.h ****     f += -4.11852516267426f;
 124:../../DaisySP/Source/Utility/dsp.h ****     f *= frac;
 125:../../DaisySP/Source/Utility/dsp.h ****     f += 6.02197014179219f;
 126:../../DaisySP/Source/Utility/dsp.h ****     f *= frac;
 127:../../DaisySP/Source/Utility/dsp.h ****     f += -3.13396450166353f;
 128:../../DaisySP/Source/Utility/dsp.h ****     f += exp;
 129:../../DaisySP/Source/Utility/dsp.h ****     return (f);
 130:../../DaisySP/Source/Utility/dsp.h **** }
 131:../../DaisySP/Source/Utility/dsp.h **** 
 132:../../DaisySP/Source/Utility/dsp.h **** inline float fastlog10f(float f)
 133:../../DaisySP/Source/Utility/dsp.h **** {
 134:../../DaisySP/Source/Utility/dsp.h ****     return fastlog2f(f) * 0.3010299956639812f;
 135:../../DaisySP/Source/Utility/dsp.h **** }
 136:../../DaisySP/Source/Utility/dsp.h **** 
 137:../../DaisySP/Source/Utility/dsp.h **** /** Midi to frequency helper
 138:../../DaisySP/Source/Utility/dsp.h **** */
 139:../../DaisySP/Source/Utility/dsp.h **** inline float mtof(float m)
 140:../../DaisySP/Source/Utility/dsp.h **** {
 141:../../DaisySP/Source/Utility/dsp.h ****     return powf(2, (m - 69.0f) / 12.0f) * 440.0f;
 142:../../DaisySP/Source/Utility/dsp.h **** }
 143:../../DaisySP/Source/Utility/dsp.h **** 
 144:../../DaisySP/Source/Utility/dsp.h **** 
 145:../../DaisySP/Source/Utility/dsp.h **** /** one pole lpf
 146:../../DaisySP/Source/Utility/dsp.h **** out is passed by reference, and must be retained between
 147:../../DaisySP/Source/Utility/dsp.h **** calls to properly filter the signal
 148:../../DaisySP/Source/Utility/dsp.h **** coeff can be calculated:
 149:../../DaisySP/Source/Utility/dsp.h **** coeff = 1.0 / (time * sample_rate) ; where time is in seconds
 150:../../DaisySP/Source/Utility/dsp.h **** */
 151:../../DaisySP/Source/Utility/dsp.h **** inline void fonepole(float &out, float in, float coeff)
 972              		.loc 18 151 13 view .LVU233
 973              	.LBB441:
 152:../../DaisySP/Source/Utility/dsp.h **** {
 153:../../DaisySP/Source/Utility/dsp.h ****     out += coeff * (in - out);
 974              		.loc 18 153 5 view .LVU234
 975              		.loc 18 153 9 is_stmt 0 view .LVU235
 976 00c8 7A49     		ldr	r1, .L50+40
 977              	.LVL67:
 978              	.L40:
 979              		.loc 18 153 9 view .LVU236
 980 00ca D1ED017A 		vldr.32	s15, [r1, #4]
 981              		.loc 18 153 24 view .LVU237
 982 00ce 91ED027A 		vldr.32	s14, [r1, #8]
 983              		.loc 18 153 9 view .LVU238
 984 00d2 9FED796A 		vldr.32	s12, .L50+44
 985              		.loc 18 153 24 view .LVU239
 986 00d6 37EE677A 		vsub.f32	s14, s14, s15
 987              	.LBE441:
 988              	.LBE440:
  69:Blink.cpp     **** 
 989              		.loc 15 69 9 view .LVU240
 990 00da 0B68     		ldr	r3, [r1]
  72:Blink.cpp     **** 
ARM GAS  C:\Users\galla\AppData\Local\Temp\ccPx7zrr.s 			page 49


 991              		.loc 15 72 19 view .LVU241
 992 00dc D1ED036A 		vldr.32	s13, [r1, #12]
 993              	.LBB444:
 994              	.LBB445:
  33:../../DaisySP/Source/Utility/delayline.h ****     /** initializes the delay line by clearing the values within, and setting delay to 1 sample.
  34:../../DaisySP/Source/Utility/delayline.h ****     */
  35:../../DaisySP/Source/Utility/delayline.h ****     void Init() { Reset(); }
  36:../../DaisySP/Source/Utility/delayline.h ****     /** clears buffer, sets write ptr to 0, and delay to 1 sample.
  37:../../DaisySP/Source/Utility/delayline.h ****     */
  38:../../DaisySP/Source/Utility/delayline.h ****     void Reset()
  39:../../DaisySP/Source/Utility/delayline.h ****     {
  40:../../DaisySP/Source/Utility/delayline.h ****         for(size_t i = 0; i < max_size; i++)
  41:../../DaisySP/Source/Utility/delayline.h ****         {
  42:../../DaisySP/Source/Utility/delayline.h ****             line_[i] = T(0);
  43:../../DaisySP/Source/Utility/delayline.h ****         }
  44:../../DaisySP/Source/Utility/delayline.h ****         write_ptr_ = 0;
  45:../../DaisySP/Source/Utility/delayline.h ****         delay_     = 1;
  46:../../DaisySP/Source/Utility/delayline.h ****     }
  47:../../DaisySP/Source/Utility/delayline.h **** 
  48:../../DaisySP/Source/Utility/delayline.h ****     /** sets the delay time in samples
  49:../../DaisySP/Source/Utility/delayline.h ****         If a float is passed in, a fractional component will be calculated for interpolating the de
  50:../../DaisySP/Source/Utility/delayline.h ****     */
  51:../../DaisySP/Source/Utility/delayline.h ****     inline void SetDelay(size_t delay)
  52:../../DaisySP/Source/Utility/delayline.h ****     {
  53:../../DaisySP/Source/Utility/delayline.h ****         frac_  = 0.0f;
  54:../../DaisySP/Source/Utility/delayline.h ****         delay_ = delay < max_size ? delay : max_size - 1;
  55:../../DaisySP/Source/Utility/delayline.h ****     }
  56:../../DaisySP/Source/Utility/delayline.h **** 
  57:../../DaisySP/Source/Utility/delayline.h ****     /** sets the delay time in samples
  58:../../DaisySP/Source/Utility/delayline.h ****         If a float is passed in, a fractional component will be calculated for interpolating the de
  59:../../DaisySP/Source/Utility/delayline.h ****     */
  60:../../DaisySP/Source/Utility/delayline.h ****     inline void SetDelay(float delay)
  61:../../DaisySP/Source/Utility/delayline.h ****     {
  62:../../DaisySP/Source/Utility/delayline.h ****         int32_t int_delay = static_cast<int32_t>(delay);
  63:../../DaisySP/Source/Utility/delayline.h ****         frac_             = delay - static_cast<float>(int_delay);
  64:../../DaisySP/Source/Utility/delayline.h ****         delay_ = static_cast<size_t>(int_delay) < max_size ? int_delay
  65:../../DaisySP/Source/Utility/delayline.h ****                                                            : max_size - 1;
  66:../../DaisySP/Source/Utility/delayline.h ****     }
  67:../../DaisySP/Source/Utility/delayline.h **** 
  68:../../DaisySP/Source/Utility/delayline.h ****     /** writes the sample of type T to the delay line, and advances the write ptr
  69:../../DaisySP/Source/Utility/delayline.h ****     */
  70:../../DaisySP/Source/Utility/delayline.h ****     inline void Write(const T sample)
  71:../../DaisySP/Source/Utility/delayline.h ****     {
  72:../../DaisySP/Source/Utility/delayline.h ****         line_[write_ptr_] = sample;
  73:../../DaisySP/Source/Utility/delayline.h ****         write_ptr_        = (write_ptr_ - 1 + max_size) % max_size;
  74:../../DaisySP/Source/Utility/delayline.h ****     }
  75:../../DaisySP/Source/Utility/delayline.h **** 
  76:../../DaisySP/Source/Utility/delayline.h ****     /** returns the next sample of type T in the delay line, interpolated if necessary.
  77:../../DaisySP/Source/Utility/delayline.h ****     */
  78:../../DaisySP/Source/Utility/delayline.h ****     inline const T Read() const
  79:../../DaisySP/Source/Utility/delayline.h ****     {
  80:../../DaisySP/Source/Utility/delayline.h ****         T a = line_[(write_ptr_ + delay_) % max_size];
 995              		.loc 13 80 22 view .LVU242
 996 00e0 5D68     		ldr	r5, [r3, #4]
 997              	.LBE445:
 998              	.LBE444:
 999              	.LBB454:
ARM GAS  C:\Users\galla\AppData\Local\Temp\ccPx7zrr.s 			page 50


 1000              	.LBB442:
 1001              		.loc 18 153 9 view .LVU243
 1002 00e2 E7EE067A 		vfma.f32	s15, s14, s12
 1003              	.LBE442:
 1004              	.LBE454:
 1005              	.LBB455:
 1006              	.LBB456:
  64:../../DaisySP/Source/Utility/delayline.h ****                                                            : max_size - 1;
 1007              		.loc 13 64 60 view .LVU244
 1008 00e6 754A     		ldr	r2, .L50+48
 1009              	.LBE456:
 1010              	.LBE455:
 1011              	.LBB461:
 1012              	.LBB446:
 1013              		.loc 13 80 43 view .LVU245
 1014 00e8 754E     		ldr	r6, .L50+52
 1015              	.LBE446:
 1016              	.LBE461:
 1017              	.LBB462:
 1018              	.LBB457:
  62:../../DaisySP/Source/Utility/delayline.h ****         frac_             = delay - static_cast<float>(int_delay);
 1019              		.loc 13 62 17 view .LVU246
 1020 00ea BDEEE77A 		vcvt.s32.f32	s14, s15
 1021              	.LBE457:
 1022              	.LBE462:
 1023              	.LBB463:
 1024              	.LBB443:
 1025              		.loc 18 153 9 view .LVU247
 1026 00ee C1ED017A 		vstr.32	s15, [r1, #4]
 1027              	.LBE443:
 1028              	.LBE463:
  69:Blink.cpp     **** 
 1029              		.loc 15 69 9 is_stmt 1 view .LVU248
 1030              	.LVL68:
 1031              	.LBB464:
 1032              	.LBI455:
  60:../../DaisySP/Source/Utility/delayline.h ****     {
 1033              		.loc 13 60 17 view .LVU249
 1034              	.LBB458:
  64:../../DaisySP/Source/Utility/delayline.h ****                                                            : max_size - 1;
 1035              		.loc 13 64 60 is_stmt 0 view .LVU250
 1036 00f2 17EE101A 		vmov	r1, s14	@ int
  63:../../DaisySP/Source/Utility/delayline.h ****         delay_ = static_cast<size_t>(int_delay) < max_size ? int_delay
 1037              		.loc 13 63 37 view .LVU251
 1038 00f6 B8EEC77A 		vcvt.f32.s32	s14, s14
 1039              	.LVL69:
  64:../../DaisySP/Source/Utility/delayline.h ****                                                            : max_size - 1;
 1040              		.loc 13 64 60 view .LVU252
 1041 00fa 9142     		cmp	r1, r2
  63:../../DaisySP/Source/Utility/delayline.h ****         delay_ = static_cast<size_t>(int_delay) < max_size ? int_delay
 1042              		.loc 13 63 35 view .LVU253
 1043 00fc 77EEC77A 		vsub.f32	s15, s15, s14
 1044              	.LVL70:
  64:../../DaisySP/Source/Utility/delayline.h ****                                                            : max_size - 1;
 1045              		.loc 13 64 60 view .LVU254
 1046 0100 28BF     		it	cs
 1047 0102 1146     		movcs	r1, r2
ARM GAS  C:\Users\galla\AppData\Local\Temp\ccPx7zrr.s 			page 51


 1048              	.LVL71:
  64:../../DaisySP/Source/Utility/delayline.h ****                                                            : max_size - 1;
 1049              		.loc 13 64 60 view .LVU255
 1050              	.LBE458:
 1051              	.LBE464:
 1052              	.LBB465:
 1053              	.LBB466:
  73:../../DaisySP/Source/Utility/delayline.h ****     }
 1054              		.loc 13 73 45 view .LVU256
 1055 0104 2A44     		add	r2, r2, r5
 1056              	.LBE466:
 1057              	.LBE465:
 1058              	.LBB472:
 1059              	.LBB447:
 1060              		.loc 13 80 33 view .LVU257
 1061 0106 4819     		adds	r0, r1, r5
 1062              	.LBE447:
 1063              	.LBE472:
 1064              	.LBB473:
 1065              	.LBB459:
  64:../../DaisySP/Source/Utility/delayline.h ****                                                            : max_size - 1;
 1066              		.loc 13 64 16 view .LVU258
 1067 0108 9960     		str	r1, [r3, #8]
 1068              	.LVL72:
  64:../../DaisySP/Source/Utility/delayline.h ****                                                            : max_size - 1;
 1069              		.loc 13 64 16 view .LVU259
 1070              	.LBE459:
 1071              	.LBE473:
  71:Blink.cpp     ****         del->Write((feedback * read) + in);
 1072              		.loc 15 71 9 is_stmt 1 view .LVU260
 1073              	.LBB474:
 1074              	.LBI444:
  78:../../DaisySP/Source/Utility/delayline.h ****     {
 1075              		.loc 13 78 20 view .LVU261
 1076              	.LBB448:
 1077              		.loc 13 80 43 is_stmt 0 view .LVU262
 1078 010a 6E49     		ldr	r1, .L50+56
 1079              	.LBE448:
 1080              	.LBE474:
 1081              	.LBB475:
 1082              	.LBB467:
  72:../../DaisySP/Source/Utility/delayline.h ****         write_ptr_        = (write_ptr_ - 1 + max_size) % max_size;
 1083              		.loc 13 72 27 view .LVU263
 1084 010c 03EB8505 		add	r5, r3, r5, lsl #2
 1085              	.LBE467:
 1086              	.LBE475:
 1087              	.LBB476:
 1088              	.LBB449:
  81:../../DaisySP/Source/Utility/delayline.h ****         T b = line_[(write_ptr_ + delay_ + 1) % max_size];
 1089              		.loc 13 81 42 view .LVU264
 1090 0110 441C     		adds	r4, r0, #1
 1091              	.LBE449:
 1092              	.LBE476:
 1093              	.LBB477:
 1094              	.LBB460:
  63:../../DaisySP/Source/Utility/delayline.h ****         delay_ = static_cast<size_t>(int_delay) < max_size ? int_delay
 1095              		.loc 13 63 27 view .LVU265
ARM GAS  C:\Users\galla\AppData\Local\Temp\ccPx7zrr.s 			page 52


 1096 0112 C3ED007A 		vstr.32	s15, [r3]
 1097              	.LBE460:
 1098              	.LBE477:
 1099              	.LBB478:
 1100              	.LBB450:
  80:../../DaisySP/Source/Utility/delayline.h ****         T b = line_[(write_ptr_ + delay_ + 1) % max_size];
 1101              		.loc 13 80 43 view .LVU266
 1102 0116 A1FB00EC 		umull	lr, ip, r1, r0
 1103 011a 4FEADC2C 		lsr	ip, ip, #11
 1104 011e 06FB1C00 		mls	r0, r6, ip, r0
  80:../../DaisySP/Source/Utility/delayline.h ****         T b = line_[(write_ptr_ + delay_ + 1) % max_size];
 1105              		.loc 13 80 11 view .LVU267
 1106 0122 03EB8000 		add	r0, r3, r0, lsl #2
 1107 0126 90ED030A 		vldr.32	s0, [r0, #12]
 1108              	.LVL73:
 1109              		.loc 13 81 47 view .LVU268
 1110 012a A1FB04C0 		umull	ip, r0, r1, r4
 1111              	.LBE450:
 1112              	.LBE478:
 1113              	.LBB479:
 1114              	.LBB468:
  73:../../DaisySP/Source/Utility/delayline.h ****     }
 1115              		.loc 13 73 57 view .LVU269
 1116 012e A1FB02C1 		umull	ip, r1, r1, r2
 1117              	.LBE468:
 1118              	.LBE479:
 1119              	.LBB480:
 1120              	.LBB451:
 1121              		.loc 13 81 47 view .LVU270
 1122 0132 C00A     		lsrs	r0, r0, #11
 1123              	.LBE451:
 1124              	.LBE480:
 1125              	.LBB481:
 1126              	.LBB469:
  73:../../DaisySP/Source/Utility/delayline.h ****     }
 1127              		.loc 13 73 57 view .LVU271
 1128 0134 C90A     		lsrs	r1, r1, #11
 1129              	.LBE469:
 1130              	.LBE481:
 1131              	.LBB482:
 1132              	.LBB452:
 1133              		.loc 13 81 47 view .LVU272
 1134 0136 06FB1044 		mls	r4, r6, r0, r4
 1135              	.LVL74:
 1136              		.loc 13 81 47 view .LVU273
 1137              	.LBE452:
 1138              	.LBE482:
 1139              	.LBB483:
 1140              	.LBB470:
  73:../../DaisySP/Source/Utility/delayline.h ****     }
 1141              		.loc 13 73 57 view .LVU274
 1142 013a 06FB1122 		mls	r2, r6, r1, r2
 1143              	.LBE470:
 1144              	.LBE483:
 1145              	.LBB484:
 1146              	.LBB453:
 1147              		.loc 13 81 11 view .LVU275
ARM GAS  C:\Users\galla\AppData\Local\Temp\ccPx7zrr.s 			page 53


 1148 013e 03EB8401 		add	r1, r3, r4, lsl #2
  82:../../DaisySP/Source/Utility/delayline.h ****         return a + (b - a) * frac_;
 1149              		.loc 13 82 23 view .LVU276
 1150 0142 91ED037A 		vldr.32	s14, [r1, #12]
 1151 0146 37EE407A 		vsub.f32	s14, s14, s0
 1152              		.loc 13 82 30 view .LVU277
 1153 014a A7EE870A 		vfma.f32	s0, s15, s14
 1154              	.LVL75:
 1155              		.loc 13 82 30 view .LVU278
 1156              	.LBE453:
 1157              	.LBE484:
  72:Blink.cpp     **** 
 1158              		.loc 15 72 9 is_stmt 1 view .LVU279
  72:Blink.cpp     **** 
 1159              		.loc 15 72 19 is_stmt 0 view .LVU280
 1160 014e F0EE487A 		vmov.f32	s15, s16
 1161 0152 E6EE807A 		vfma.f32	s15, s13, s0
 1162              	.LVL76:
 1163              	.LBB485:
 1164              	.LBI465:
  70:../../DaisySP/Source/Utility/delayline.h ****     {
 1165              		.loc 13 70 17 is_stmt 1 view .LVU281
 1166              	.LBE485:
 1167              	.LBE439:
 1168              	.LBE438:
 144:Blink.cpp     ****         }
 1169              		.loc 15 144 40 is_stmt 0 view .LVU282
 1170 0156 38EE000A 		vadd.f32	s0, s16, s0
 1171              	.LVL77:
 1172              	.LBB488:
 1173              	.LBB487:
 1174              	.LBB486:
 1175              	.LBB471:
  72:../../DaisySP/Source/Utility/delayline.h ****         write_ptr_        = (write_ptr_ - 1 + max_size) % max_size;
 1176              		.loc 13 72 27 view .LVU283
 1177 015a C5ED037A 		vstr.32	s15, [r5, #12]
 1178              	.LVL78:
  73:../../DaisySP/Source/Utility/delayline.h ****     }
 1179              		.loc 13 73 27 view .LVU284
 1180 015e 5A60     		str	r2, [r3, #4]
 1181              	.LVL79:
  73:../../DaisySP/Source/Utility/delayline.h ****     }
 1182              		.loc 13 73 27 view .LVU285
 1183              	.LBE471:
 1184              	.LBE486:
  74:Blink.cpp     ****     }
 1185              		.loc 15 74 9 is_stmt 1 view .LVU286
  74:Blink.cpp     ****     }
 1186              		.loc 15 74 9 is_stmt 0 view .LVU287
 1187              	.LBE487:
 1188              	.LBE488:
 144:Blink.cpp     ****         }
 1189              		.loc 15 144 40 view .LVU288
 1190 0160 8AE7     		b	.L18
 1191              	.L25:
 147:Blink.cpp     ****         return ch.Process(in);
 1192              		.loc 15 147 5 is_stmt 1 view .LVU289
ARM GAS  C:\Users\galla\AppData\Local\Temp\ccPx7zrr.s 			page 54


 148:Blink.cpp     ****         break;
 1193              		.loc 15 148 9 view .LVU290
 148:Blink.cpp     ****         break;
 1194              		.loc 15 148 26 is_stmt 0 view .LVU291
 1195 0162 B0EE480A 		vmov.f32	s0, s16
 1196 0166 5848     		ldr	r0, .L50+60
 1197              		.loc 15 166 1 view .LVU292
 1198 0168 BDEC028B 		vldm	sp!, {d8}
 1199              		.cfi_remember_state
 1200              		.cfi_restore 80
 1201              		.cfi_restore 81
 1202              		.cfi_def_cfa_offset 16
 1203              	.LVL80:
 1204              		.loc 15 166 1 view .LVU293
 1205 016c BDE87040 		pop	{r4, r5, r6, lr}
 1206              		.cfi_restore 14
 1207              		.cfi_restore 6
 1208              		.cfi_restore 5
 1209              		.cfi_restore 4
 1210              		.cfi_def_cfa_offset 0
 148:Blink.cpp     ****         break;
 1211              		.loc 15 148 26 view .LVU294
 1212 0170 FFF7FEBF 		b	_ZN7daisysp6Chorus7ProcessEf
 1213              	.LVL81:
 1214              	.L24:
 1215              		.cfi_restore_state
 149:Blink.cpp     ****     case 4:
 1216              		.loc 15 149 9 is_stmt 1 view .LVU295
 150:Blink.cpp     ****         return fl.Process(in);
 1217              		.loc 15 150 5 view .LVU296
 151:Blink.cpp     ****         break;
 1218              		.loc 15 151 9 view .LVU297
 151:Blink.cpp     ****         break;
 1219              		.loc 15 151 26 is_stmt 0 view .LVU298
 1220 0174 B0EE480A 		vmov.f32	s0, s16
 1221 0178 5448     		ldr	r0, .L50+64
 1222              		.loc 15 166 1 view .LVU299
 1223 017a BDEC028B 		vldm	sp!, {d8}
 1224              		.cfi_remember_state
 1225              		.cfi_restore 80
 1226              		.cfi_restore 81
 1227              		.cfi_def_cfa_offset 16
 1228              	.LVL82:
 1229              		.loc 15 166 1 view .LVU300
 1230 017e BDE87040 		pop	{r4, r5, r6, lr}
 1231              		.cfi_restore 14
 1232              		.cfi_restore 6
 1233              		.cfi_restore 5
 1234              		.cfi_restore 4
 1235              		.cfi_def_cfa_offset 0
 151:Blink.cpp     ****         break;
 1236              		.loc 15 151 26 view .LVU301
 1237 0182 FFF7FEBF 		b	_ZN7daisysp7Flanger7ProcessEf
 1238              	.LVL83:
 1239              	.L23:
 1240              		.cfi_restore_state
 152:Blink.cpp     ****     case 5:
ARM GAS  C:\Users\galla\AppData\Local\Temp\ccPx7zrr.s 			page 55


 1241              		.loc 15 152 9 is_stmt 1 view .LVU302
 153:Blink.cpp     ****         return wahflt.Process(in);
 1242              		.loc 15 153 5 view .LVU303
 154:Blink.cpp     ****         break;
 1243              		.loc 15 154 9 view .LVU304
 154:Blink.cpp     ****         break;
 1244              		.loc 15 154 30 is_stmt 0 view .LVU305
 1245 0186 B0EE480A 		vmov.f32	s0, s16
 1246 018a 4448     		ldr	r0, .L50+16
 1247              		.loc 15 166 1 view .LVU306
 1248 018c BDEC028B 		vldm	sp!, {d8}
 1249              		.cfi_remember_state
 1250              		.cfi_restore 80
 1251              		.cfi_restore 81
 1252              		.cfi_def_cfa_offset 16
 1253              	.LVL84:
 1254              		.loc 15 166 1 view .LVU307
 1255 0190 BDE87040 		pop	{r4, r5, r6, lr}
 1256              		.cfi_restore 14
 1257              		.cfi_restore 6
 1258              		.cfi_restore 5
 1259              		.cfi_restore 4
 1260              		.cfi_def_cfa_offset 0
 154:Blink.cpp     ****         break;
 1261              		.loc 15 154 30 view .LVU308
 1262 0194 FFF7FEBF 		b	_ZN7daisysp12LadderFilter7ProcessEf
 1263              	.LVL85:
 1264              	.L22:
 1265              		.cfi_restore_state
 155:Blink.cpp     ****     case 6:
 1266              		.loc 15 155 9 is_stmt 1 view .LVU309
 156:Blink.cpp     ****         return trem.Process(in);
 1267              		.loc 15 156 5 view .LVU310
 157:Blink.cpp     ****         break;
 1268              		.loc 15 157 9 view .LVU311
 157:Blink.cpp     ****         break;
 1269              		.loc 15 157 28 is_stmt 0 view .LVU312
 1270 0198 B0EE480A 		vmov.f32	s0, s16
 1271 019c 4C48     		ldr	r0, .L50+68
 1272              		.loc 15 166 1 view .LVU313
 1273 019e BDEC028B 		vldm	sp!, {d8}
 1274              		.cfi_remember_state
 1275              		.cfi_restore 80
 1276              		.cfi_restore 81
 1277              		.cfi_def_cfa_offset 16
 1278              	.LVL86:
 1279              		.loc 15 166 1 view .LVU314
 1280 01a2 BDE87040 		pop	{r4, r5, r6, lr}
 1281              		.cfi_restore 14
 1282              		.cfi_restore 6
 1283              		.cfi_restore 5
 1284              		.cfi_restore 4
 1285              		.cfi_def_cfa_offset 0
 157:Blink.cpp     ****         break;
 1286              		.loc 15 157 28 view .LVU315
 1287 01a6 FFF7FEBF 		b	_ZN7daisysp7Tremolo7ProcessEf
 1288              	.LVL87:
ARM GAS  C:\Users\galla\AppData\Local\Temp\ccPx7zrr.s 			page 56


 1289              	.L45:
 1290              		.cfi_restore_state
 126:Blink.cpp     ****         }
 1291              		.loc 15 126 13 is_stmt 1 view .LVU316
 126:Blink.cpp     ****         }
 1292              		.loc 15 126 27 is_stmt 0 view .LVU317
 1293 01aa 4A49     		ldr	r1, .L50+72
 1294 01ac 4A4A     		ldr	r2, .L50+76
 1295 01ae 4B4B     		ldr	r3, .L50+80
 1296              	.L41:
 124:Blink.cpp     ****         } else if(profile == 2){
 1297              		.loc 15 124 27 view .LVU318
 1298 01b0 B0EE480A 		vmov.f32	s0, s16
 1299 01b4 D1ED001A 		vldr.32	s3, [r1]
 1300 01b8 92ED001A 		vldr.32	s2, [r2]
 1301 01bc D3ED000A 		vldr.32	s1, [r3]
 1302              		.loc 15 166 1 view .LVU319
 1303 01c0 BDEC028B 		vldm	sp!, {d8}
 1304              		.cfi_remember_state
 1305              		.cfi_restore 80
 1306              		.cfi_restore 81
 1307              		.cfi_def_cfa_offset 16
 1308              	.LVL88:
 1309              		.loc 15 166 1 view .LVU320
 1310 01c4 BDE87040 		pop	{r4, r5, r6, lr}
 1311              		.cfi_restore 14
 1312              		.cfi_restore 6
 1313              		.cfi_restore 5
 1314              		.cfi_restore 4
 1315              		.cfi_def_cfa_offset 0
 124:Blink.cpp     ****         } else if(profile == 2){
 1316              		.loc 15 124 27 view .LVU321
 1317 01c8 FFF7FEBF 		b	_Z7distortffff
 1318              	.LVL89:
 1319              	.L48:
 1320              		.cfi_restore_state
 140:Blink.cpp     ****         } else if(profile == 1){
 1321              		.loc 15 140 13 is_stmt 1 view .LVU322
 1322              	.LBB489:
 1323              	.LBI489:
  65:Blink.cpp     ****     {
 1324              		.loc 15 65 11 view .LVU323
 1325              	.LBB490:
  68:Blink.cpp     ****         del->SetDelay(currentDelay);
 1326              		.loc 15 68 9 view .LVU324
 1327              	.LBB491:
 1328              	.LBI491:
 151:../../DaisySP/Source/Utility/dsp.h **** {
 1329              		.loc 18 151 13 view .LVU325
 1330              	.LBB492:
 1331              		.loc 18 153 5 view .LVU326
 1332              		.loc 18 153 9 is_stmt 0 view .LVU327
 1333 01cc 4449     		ldr	r1, .L50+84
 1334 01ce 9FED3A6A 		vldr.32	s12, .L50+44
 1335 01d2 D1ED017A 		vldr.32	s15, [r1, #4]
 1336              		.loc 18 153 24 view .LVU328
 1337 01d6 91ED027A 		vldr.32	s14, [r1, #8]
ARM GAS  C:\Users\galla\AppData\Local\Temp\ccPx7zrr.s 			page 57


 1338              	.LBE492:
 1339              	.LBE491:
  69:Blink.cpp     **** 
 1340              		.loc 15 69 9 view .LVU329
 1341 01da 0B68     		ldr	r3, [r1]
 1342              	.LBB496:
 1343              	.LBB493:
 1344              		.loc 18 153 24 view .LVU330
 1345 01dc 37EE677A 		vsub.f32	s14, s14, s15
 1346              	.LBE493:
 1347              	.LBE496:
  72:Blink.cpp     **** 
 1348              		.loc 15 72 19 view .LVU331
 1349 01e0 D1ED036A 		vldr.32	s13, [r1, #12]
 1350              	.LBB497:
 1351              	.LBB498:
  80:../../DaisySP/Source/Utility/delayline.h ****         T b = line_[(write_ptr_ + delay_ + 1) % max_size];
 1352              		.loc 13 80 22 view .LVU332
 1353 01e4 5C68     		ldr	r4, [r3, #4]
 1354              	.LBE498:
 1355              	.LBE497:
 1356              	.LBB506:
 1357              	.LBB507:
  64:../../DaisySP/Source/Utility/delayline.h ****                                                            : max_size - 1;
 1358              		.loc 13 64 60 view .LVU333
 1359 01e6 354A     		ldr	r2, .L50+48
 1360              	.LBE507:
 1361              	.LBE506:
 1362              	.LBB512:
 1363              	.LBB494:
 1364              		.loc 18 153 9 view .LVU334
 1365 01e8 E7EE067A 		vfma.f32	s15, s14, s12
 1366              	.LBE494:
 1367              	.LBE512:
 1368              	.LBB513:
 1369              	.LBB499:
  80:../../DaisySP/Source/Utility/delayline.h ****         T b = line_[(write_ptr_ + delay_ + 1) % max_size];
 1370              		.loc 13 80 43 view .LVU335
 1371 01ec 344D     		ldr	r5, .L50+52
 1372              	.LBE499:
 1373              	.LBE513:
 1374              	.LBB514:
 1375              	.LBB515:
  72:../../DaisySP/Source/Utility/delayline.h ****         write_ptr_        = (write_ptr_ - 1 + max_size) % max_size;
 1376              		.loc 13 72 27 view .LVU336
 1377 01ee 03EB840C 		add	ip, r3, r4, lsl #2
 1378              	.LBE515:
 1379              	.LBE514:
 1380              	.LBB521:
 1381              	.LBB508:
  62:../../DaisySP/Source/Utility/delayline.h ****         frac_             = delay - static_cast<float>(int_delay);
 1382              		.loc 13 62 17 view .LVU337
 1383 01f2 BDEEE77A 		vcvt.s32.f32	s14, s15
 1384              	.LBE508:
 1385              	.LBE521:
 1386              	.LBB522:
 1387              	.LBB495:
ARM GAS  C:\Users\galla\AppData\Local\Temp\ccPx7zrr.s 			page 58


 1388              		.loc 18 153 9 view .LVU338
 1389 01f6 C1ED017A 		vstr.32	s15, [r1, #4]
 1390              	.LVL90:
 1391              		.loc 18 153 9 view .LVU339
 1392              	.LBE495:
 1393              	.LBE522:
  69:Blink.cpp     **** 
 1394              		.loc 15 69 9 is_stmt 1 view .LVU340
 1395              	.LBB523:
 1396              	.LBI506:
  60:../../DaisySP/Source/Utility/delayline.h ****     {
 1397              		.loc 13 60 17 view .LVU341
 1398              	.LBB509:
  64:../../DaisySP/Source/Utility/delayline.h ****                                                            : max_size - 1;
 1399              		.loc 13 64 60 is_stmt 0 view .LVU342
 1400 01fa 17EE101A 		vmov	r1, s14	@ int
  63:../../DaisySP/Source/Utility/delayline.h ****         delay_ = static_cast<size_t>(int_delay) < max_size ? int_delay
 1401              		.loc 13 63 37 view .LVU343
 1402 01fe B8EEC77A 		vcvt.f32.s32	s14, s14
 1403              	.LVL91:
  64:../../DaisySP/Source/Utility/delayline.h ****                                                            : max_size - 1;
 1404              		.loc 13 64 60 view .LVU344
 1405 0202 9142     		cmp	r1, r2
  63:../../DaisySP/Source/Utility/delayline.h ****         delay_ = static_cast<size_t>(int_delay) < max_size ? int_delay
 1406              		.loc 13 63 35 view .LVU345
 1407 0204 77EEC77A 		vsub.f32	s15, s15, s14
 1408              	.LVL92:
  64:../../DaisySP/Source/Utility/delayline.h ****                                                            : max_size - 1;
 1409              		.loc 13 64 60 view .LVU346
 1410 0208 28BF     		it	cs
 1411 020a 1146     		movcs	r1, r2
 1412              	.LVL93:
  64:../../DaisySP/Source/Utility/delayline.h ****                                                            : max_size - 1;
 1413              		.loc 13 64 60 view .LVU347
 1414              	.LBE509:
 1415              	.LBE523:
 1416              	.LBB524:
 1417              	.LBB516:
  73:../../DaisySP/Source/Utility/delayline.h ****     }
 1418              		.loc 13 73 45 view .LVU348
 1419 020c 2244     		add	r2, r2, r4
 1420              	.LBE516:
 1421              	.LBE524:
 1422              	.LBB525:
 1423              	.LBB500:
  80:../../DaisySP/Source/Utility/delayline.h ****         T b = line_[(write_ptr_ + delay_ + 1) % max_size];
 1424              		.loc 13 80 33 view .LVU349
 1425 020e 0819     		adds	r0, r1, r4
 1426              	.LBE500:
 1427              	.LBE525:
 1428              	.LBB526:
 1429              	.LBB510:
  64:../../DaisySP/Source/Utility/delayline.h ****                                                            : max_size - 1;
 1430              		.loc 13 64 16 view .LVU350
 1431 0210 9960     		str	r1, [r3, #8]
 1432              	.LVL94:
  64:../../DaisySP/Source/Utility/delayline.h ****                                                            : max_size - 1;
ARM GAS  C:\Users\galla\AppData\Local\Temp\ccPx7zrr.s 			page 59


 1433              		.loc 13 64 16 view .LVU351
 1434              	.LBE510:
 1435              	.LBE526:
  71:Blink.cpp     ****         del->Write((feedback * read) + in);
 1436              		.loc 15 71 9 is_stmt 1 view .LVU352
 1437              	.LBB527:
 1438              	.LBI497:
  78:../../DaisySP/Source/Utility/delayline.h ****     {
 1439              		.loc 13 78 20 view .LVU353
 1440              	.LBB501:
  80:../../DaisySP/Source/Utility/delayline.h ****         T b = line_[(write_ptr_ + delay_ + 1) % max_size];
 1441              		.loc 13 80 43 is_stmt 0 view .LVU354
 1442 0212 2C49     		ldr	r1, .L50+56
  81:../../DaisySP/Source/Utility/delayline.h ****         return a + (b - a) * frac_;
 1443              		.loc 13 81 42 view .LVU355
 1444 0214 441C     		adds	r4, r0, #1
 1445              	.LBE501:
 1446              	.LBE527:
 1447              	.LBB528:
 1448              	.LBB511:
  63:../../DaisySP/Source/Utility/delayline.h ****         delay_ = static_cast<size_t>(int_delay) < max_size ? int_delay
 1449              		.loc 13 63 27 view .LVU356
 1450 0216 C3ED007A 		vstr.32	s15, [r3]
 1451              	.LBE511:
 1452              	.LBE528:
 1453              	.LBB529:
 1454              	.LBB502:
  80:../../DaisySP/Source/Utility/delayline.h ****         T b = line_[(write_ptr_ + delay_ + 1) % max_size];
 1455              		.loc 13 80 43 view .LVU357
 1456 021a A1FB006E 		umull	r6, lr, r1, r0
 1457 021e 4FEADE2E 		lsr	lr, lr, #11
 1458 0222 05FB1E00 		mls	r0, r5, lr, r0
  80:../../DaisySP/Source/Utility/delayline.h ****         T b = line_[(write_ptr_ + delay_ + 1) % max_size];
 1459              		.loc 13 80 11 view .LVU358
 1460 0226 03EB8000 		add	r0, r3, r0, lsl #2
 1461 022a 90ED030A 		vldr.32	s0, [r0, #12]
 1462              	.LVL95:
  81:../../DaisySP/Source/Utility/delayline.h ****         return a + (b - a) * frac_;
 1463              		.loc 13 81 47 view .LVU359
 1464 022e A1FB0460 		umull	r6, r0, r1, r4
 1465              	.LBE502:
 1466              	.LBE529:
 1467              	.LBB530:
 1468              	.LBB517:
  73:../../DaisySP/Source/Utility/delayline.h ****     }
 1469              		.loc 13 73 57 view .LVU360
 1470 0232 A1FB0261 		umull	r6, r1, r1, r2
 1471              	.LBE517:
 1472              	.LBE530:
 1473              	.LBB531:
 1474              	.LBB503:
  81:../../DaisySP/Source/Utility/delayline.h ****         return a + (b - a) * frac_;
 1475              		.loc 13 81 47 view .LVU361
 1476 0236 C00A     		lsrs	r0, r0, #11
 1477              	.LBE503:
 1478              	.LBE531:
 1479              	.LBB532:
ARM GAS  C:\Users\galla\AppData\Local\Temp\ccPx7zrr.s 			page 60


 1480              	.LBB518:
  73:../../DaisySP/Source/Utility/delayline.h ****     }
 1481              		.loc 13 73 57 view .LVU362
 1482 0238 C90A     		lsrs	r1, r1, #11
 1483              	.LBE518:
 1484              	.LBE532:
 1485              	.LBB533:
 1486              	.LBB504:
  81:../../DaisySP/Source/Utility/delayline.h ****         return a + (b - a) * frac_;
 1487              		.loc 13 81 47 view .LVU363
 1488 023a 05FB1044 		mls	r4, r5, r0, r4
 1489              	.LVL96:
  81:../../DaisySP/Source/Utility/delayline.h ****         return a + (b - a) * frac_;
 1490              		.loc 13 81 47 view .LVU364
 1491              	.LBE504:
 1492              	.LBE533:
 1493              	.LBB534:
 1494              	.LBB519:
  73:../../DaisySP/Source/Utility/delayline.h ****     }
 1495              		.loc 13 73 57 view .LVU365
 1496 023e 05FB1121 		mls	r1, r5, r1, r2
 1497              	.LBE519:
 1498              	.LBE534:
 1499              	.LBB535:
 1500              	.LBB505:
  81:../../DaisySP/Source/Utility/delayline.h ****         return a + (b - a) * frac_;
 1501              		.loc 13 81 11 view .LVU366
 1502 0242 03EB8404 		add	r4, r3, r4, lsl #2
 1503              		.loc 13 82 23 view .LVU367
 1504 0246 94ED037A 		vldr.32	s14, [r4, #12]
 1505 024a 37EE407A 		vsub.f32	s14, s14, s0
 1506              		.loc 13 82 30 view .LVU368
 1507 024e A7EE870A 		vfma.f32	s0, s15, s14
 1508              	.LVL97:
 1509              		.loc 13 82 30 view .LVU369
 1510              	.LBE505:
 1511              	.LBE535:
  72:Blink.cpp     **** 
 1512              		.loc 15 72 9 is_stmt 1 view .LVU370
  72:Blink.cpp     **** 
 1513              		.loc 15 72 19 is_stmt 0 view .LVU371
 1514 0252 F0EE487A 		vmov.f32	s15, s16
 1515 0256 E6EE807A 		vfma.f32	s15, s13, s0
 1516              	.LVL98:
 1517              	.LBB536:
 1518              	.LBI514:
  70:../../DaisySP/Source/Utility/delayline.h ****     {
 1519              		.loc 13 70 17 is_stmt 1 view .LVU372
 1520              	.LBE536:
 1521              	.LBE490:
 1522              	.LBE489:
 140:Blink.cpp     ****         } else if(profile == 1){
 1523              		.loc 15 140 40 is_stmt 0 view .LVU373
 1524 025a 38EE000A 		vadd.f32	s0, s16, s0
 1525              	.LVL99:
 1526              	.LBB539:
 1527              	.LBB538:
ARM GAS  C:\Users\galla\AppData\Local\Temp\ccPx7zrr.s 			page 61


 1528              	.LBB537:
 1529              	.LBB520:
  72:../../DaisySP/Source/Utility/delayline.h ****         write_ptr_        = (write_ptr_ - 1 + max_size) % max_size;
 1530              		.loc 13 72 27 view .LVU374
 1531 025e CCED037A 		vstr.32	s15, [ip, #12]
 1532              	.LVL100:
  73:../../DaisySP/Source/Utility/delayline.h ****     }
 1533              		.loc 13 73 27 view .LVU375
 1534 0262 5960     		str	r1, [r3, #4]
 1535              	.LVL101:
  73:../../DaisySP/Source/Utility/delayline.h ****     }
 1536              		.loc 13 73 27 view .LVU376
 1537              	.LBE520:
 1538              	.LBE537:
  74:Blink.cpp     ****     }
 1539              		.loc 15 74 9 is_stmt 1 view .LVU377
  74:Blink.cpp     ****     }
 1540              		.loc 15 74 9 is_stmt 0 view .LVU378
 1541              	.LBE538:
 1542              	.LBE539:
 140:Blink.cpp     ****         } else if(profile == 1){
 1543              		.loc 15 140 40 view .LVU379
 1544 0264 08E7     		b	.L18
 1545              	.L46:
 131:Blink.cpp     ****         } else if(profile == 1){
 1546              		.loc 15 131 13 is_stmt 1 view .LVU380
 131:Blink.cpp     ****         } else if(profile == 1){
 1547              		.loc 15 131 24 is_stmt 0 view .LVU381
 1548 0266 1F49     		ldr	r1, .L50+88
 1549 0268 1F4A     		ldr	r2, .L50+92
 1550 026a 204B     		ldr	r3, .L50+96
 1551 026c 14E7     		b	.L42
 1552              	.L43:
 122:Blink.cpp     ****         } else if(profile == 1){
 1553              		.loc 15 122 13 is_stmt 1 view .LVU382
 122:Blink.cpp     ****         } else if(profile == 1){
 1554              		.loc 15 122 27 is_stmt 0 view .LVU383
 1555 026e 2049     		ldr	r1, .L50+100
 1556 0270 204A     		ldr	r2, .L50+104
 1557 0272 214B     		ldr	r3, .L50+108
 1558 0274 9CE7     		b	.L41
 1559              	.L44:
 124:Blink.cpp     ****         } else if(profile == 2){
 1560              		.loc 15 124 13 is_stmt 1 view .LVU384
 124:Blink.cpp     ****         } else if(profile == 2){
 1561              		.loc 15 124 27 is_stmt 0 view .LVU385
 1562 0276 2149     		ldr	r1, .L50+112
 1563 0278 214A     		ldr	r2, .L50+116
 1564 027a 224B     		ldr	r3, .L50+120
 1565 027c 98E7     		b	.L41
 1566              	.L49:
 142:Blink.cpp     ****         } else if(profile == 2){
 1567              		.loc 15 142 13 is_stmt 1 view .LVU386
 1568              	.LVL102:
 1569              	.LBB540:
 1570              	.LBI540:
  65:Blink.cpp     ****     {
ARM GAS  C:\Users\galla\AppData\Local\Temp\ccPx7zrr.s 			page 62


 1571              		.loc 15 65 11 view .LVU387
 1572              	.LBB541:
  68:Blink.cpp     ****         del->SetDelay(currentDelay);
 1573              		.loc 15 68 9 view .LVU388
 1574              	.LBB542:
 1575              	.LBI542:
 151:../../DaisySP/Source/Utility/dsp.h **** {
 1576              		.loc 18 151 13 view .LVU389
 1577              	.LBB543:
 1578              		.loc 18 153 5 view .LVU390
 1579              		.loc 18 153 9 is_stmt 0 view .LVU391
 1580 027e 2249     		ldr	r1, .L50+124
 1581 0280 23E7     		b	.L40
 1582              	.LVL103:
 1583              	.L47:
 1584              		.loc 18 153 9 view .LVU392
 1585              	.LBE543:
 1586              	.LBE542:
 1587              	.LBE541:
 1588              	.LBE540:
 133:Blink.cpp     ****         } else if(profile == 2){
 1589              		.loc 15 133 13 is_stmt 1 view .LVU393
 133:Blink.cpp     ****         } else if(profile == 2){
 1590              		.loc 15 133 24 is_stmt 0 view .LVU394
 1591 0282 2249     		ldr	r1, .L50+128
 1592 0284 224A     		ldr	r2, .L50+132
 1593 0286 234B     		ldr	r3, .L50+136
 1594 0288 06E7     		b	.L42
 1595              	.L51:
 1596 028a 00BF     		.align	2
 1597              	.L50:
 1598 028c 18000000 		.word	.LANCHOR2+24
 1599 0290 00009644 		.word	1150681088
 1600 0294 0000C843 		.word	1137180672
 1601 0298 00000000 		.word	.LANCHOR3
 1602 029c 00000000 		.word	.LANCHOR4
 1603 02a0 00000000 		.word	ph
 1604 02a4 00000000 		.word	.LANCHOR5
 1605 02a8 00000000 		.word	.LANCHOR21
 1606 02ac 00000000 		.word	.LANCHOR22
 1607 02b0 00000000 		.word	.LANCHOR23
 1608 02b4 00000000 		.word	.LANCHOR26
 1609 02b8 17B75139 		.word	961656599
 1610 02bc FF760100 		.word	95999
 1611 02c0 00770100 		.word	96000
 1612 02c4 F1197605 		.word	91625969
 1613 02c8 00000000 		.word	ch
 1614 02cc 00000000 		.word	.LANCHOR27
 1615 02d0 00000000 		.word	.LANCHOR28
 1616 02d4 00000000 		.word	.LANCHOR12
 1617 02d8 00000000 		.word	.LANCHOR13
 1618 02dc 00000000 		.word	.LANCHOR14
 1619 02e0 00000000 		.word	.LANCHOR24
 1620 02e4 00000000 		.word	.LANCHOR15
 1621 02e8 00000000 		.word	.LANCHOR16
 1622 02ec 00000000 		.word	.LANCHOR17
 1623 02f0 00000000 		.word	.LANCHOR6
ARM GAS  C:\Users\galla\AppData\Local\Temp\ccPx7zrr.s 			page 63


 1624 02f4 00000000 		.word	.LANCHOR7
 1625 02f8 00000000 		.word	.LANCHOR8
 1626 02fc 00000000 		.word	.LANCHOR9
 1627 0300 00000000 		.word	.LANCHOR10
 1628 0304 00000000 		.word	.LANCHOR11
 1629 0308 00000000 		.word	.LANCHOR25
 1630 030c 00000000 		.word	.LANCHOR18
 1631 0310 00000000 		.word	.LANCHOR19
 1632 0314 00000000 		.word	.LANCHOR20
 1633              		.cfi_endproc
 1634              	.LFE4898:
 1636              		.section	.text._Z13AudioCallbackPKPKfPPfj,"ax",%progbits
 1637              		.align	1
 1638              		.p2align 2,,3
 1639              		.global	_Z13AudioCallbackPKPKfPPfj
 1640              		.syntax unified
 1641              		.thumb
 1642              		.thumb_func
 1643              		.fpu fpv5-d16
 1645              	_Z13AudioCallbackPKPKfPPfj:
 1646              	.LVL104:
 1647              	.LFB4907:
 167:Blink.cpp     **** 
 168:Blink.cpp     **** //get effect parameters for each effect for each profile to process as well as send to screen when 
 169:Blink.cpp     **** float getEffectParams(uint8_t num){
 170:Blink.cpp     ****     if(profile == 0){
 171:Blink.cpp     ****         switch (effectCount)
 172:Blink.cpp     ****         {
 173:Blink.cpp     ****         case 0://distortion
 174:Blink.cpp     ****             if(num == 0) {
 175:Blink.cpp     ****                 return p1dtone;
 176:Blink.cpp     ****             } else if(num == 1){
 177:Blink.cpp     ****                 return p1doutgain;
 178:Blink.cpp     ****             } else {
 179:Blink.cpp     ****                 return p1dingain;
 180:Blink.cpp     ****             }
 181:Blink.cpp     ****             break;
 182:Blink.cpp     ****         case 1://fuzz
 183:Blink.cpp     ****             if(num == 0) {
 184:Blink.cpp     ****                 return p1fingain;
 185:Blink.cpp     ****             } else if(num == 1){
 186:Blink.cpp     ****                 return p1fuzz;
 187:Blink.cpp     ****             } else {
 188:Blink.cpp     ****                 return p1ftone;
 189:Blink.cpp     ****             }
 190:Blink.cpp     ****             break;
 191:Blink.cpp     ****         case 2://delay
 192:Blink.cpp     ****             if(num == 0) {
 193:Blink.cpp     ****                 return 0;
 194:Blink.cpp     ****             } else if(num == 1){
 195:Blink.cpp     ****                 return del1.feedback;
 196:Blink.cpp     ****             } else {
 197:Blink.cpp     ****                 return del1.delayTarget/(48000.0*2);
 198:Blink.cpp     ****             }
 199:Blink.cpp     ****             break;
 200:Blink.cpp     ****         case 3://chorus
 201:Blink.cpp     ****             if(num == 0) {
ARM GAS  C:\Users\galla\AppData\Local\Temp\ccPx7zrr.s 			page 64


 202:Blink.cpp     ****                 return p1chDelay;
 203:Blink.cpp     ****             } else if(num == 1){
 204:Blink.cpp     ****                 return p1chDepth;
 205:Blink.cpp     ****             } else {
 206:Blink.cpp     ****                 return p1chFreq;
 207:Blink.cpp     ****             }
 208:Blink.cpp     ****             break;
 209:Blink.cpp     ****         case 4://flanger
 210:Blink.cpp     ****             if(num == 0) {
 211:Blink.cpp     ****                 return p1flDelay;
 212:Blink.cpp     ****             } else if(num == 1){
 213:Blink.cpp     ****                 return p1flDepth;
 214:Blink.cpp     ****             } else {
 215:Blink.cpp     ****                 return p1flFreq;
 216:Blink.cpp     ****             }
 217:Blink.cpp     ****             break;
 218:Blink.cpp     ****         case 5://wah
 219:Blink.cpp     ****             return 0;
 220:Blink.cpp     ****             break;
 221:Blink.cpp     ****         case 6://tremolo
 222:Blink.cpp     ****             if(num == 0) {
 223:Blink.cpp     ****                 return 0;
 224:Blink.cpp     ****             } else if(num == 1){
 225:Blink.cpp     ****                 return p1tremDepth;
 226:Blink.cpp     ****             } else {
 227:Blink.cpp     ****                 return p1tremFreq;
 228:Blink.cpp     ****             }
 229:Blink.cpp     ****             break;
 230:Blink.cpp     ****         case 7://phaser
 231:Blink.cpp     ****             if(num == 0) {
 232:Blink.cpp     ****                 return 0;
 233:Blink.cpp     ****             } else if(num == 1){
 234:Blink.cpp     ****                 return p1phFreq;
 235:Blink.cpp     ****             } else {
 236:Blink.cpp     ****                 return p1phdepth;
 237:Blink.cpp     ****             }
 238:Blink.cpp     ****             break;
 239:Blink.cpp     ****         }
 240:Blink.cpp     ****     } else if(profile == 1){
 241:Blink.cpp     ****         switch (effectCount)
 242:Blink.cpp     ****         {
 243:Blink.cpp     ****         case 0://distortion
 244:Blink.cpp     ****             if(num == 0) {
 245:Blink.cpp     ****                 return p2dtone;
 246:Blink.cpp     ****             } else if(num == 1){
 247:Blink.cpp     ****                 return p2doutgain;
 248:Blink.cpp     ****             } else {
 249:Blink.cpp     ****                 return p2dingain;
 250:Blink.cpp     ****             }
 251:Blink.cpp     ****             break;
 252:Blink.cpp     ****         case 1://fuzz
 253:Blink.cpp     ****             if(num == 0) {
 254:Blink.cpp     ****                 return p2fingain;
 255:Blink.cpp     ****             } else if(num == 1){
 256:Blink.cpp     ****                 return p2fuzz;
 257:Blink.cpp     ****             } else {
 258:Blink.cpp     ****                 return p2ftone;
ARM GAS  C:\Users\galla\AppData\Local\Temp\ccPx7zrr.s 			page 65


 259:Blink.cpp     ****             }
 260:Blink.cpp     ****             break;
 261:Blink.cpp     ****         case 2://delay
 262:Blink.cpp     ****             if(num == 0) {
 263:Blink.cpp     ****                 return 0;
 264:Blink.cpp     ****             } else if(num == 1){
 265:Blink.cpp     ****                 return del2.feedback;
 266:Blink.cpp     ****             } else {
 267:Blink.cpp     ****                 return del2.delayTarget/(48000.0*2);
 268:Blink.cpp     ****             }
 269:Blink.cpp     ****             break;
 270:Blink.cpp     ****         case 3://chorus
 271:Blink.cpp     ****             if(num == 0) {
 272:Blink.cpp     ****                 return p2chDelay;
 273:Blink.cpp     ****             } else if(num == 1){
 274:Blink.cpp     ****                 return p2chDepth;
 275:Blink.cpp     ****             } else {
 276:Blink.cpp     ****                 return p2chFreq;
 277:Blink.cpp     ****             }
 278:Blink.cpp     ****             break;
 279:Blink.cpp     ****         case 4://flanger
 280:Blink.cpp     ****             if(num == 0) {
 281:Blink.cpp     ****                 return p2flDelay;
 282:Blink.cpp     ****             } else if(num == 1){
 283:Blink.cpp     ****                 return p2flDepth;
 284:Blink.cpp     ****             } else {
 285:Blink.cpp     ****                 return p2flFreq;
 286:Blink.cpp     ****             }
 287:Blink.cpp     ****             break;
 288:Blink.cpp     ****         case 5://wah
 289:Blink.cpp     ****             return 0;
 290:Blink.cpp     ****             break;
 291:Blink.cpp     ****         case 6://tremolo
 292:Blink.cpp     ****             if(num == 0) {
 293:Blink.cpp     ****                 return 0;
 294:Blink.cpp     ****             } else if(num == 1){
 295:Blink.cpp     ****                 return p2tremDepth;
 296:Blink.cpp     ****             } else {
 297:Blink.cpp     ****                 return p2tremFreq;
 298:Blink.cpp     ****             }
 299:Blink.cpp     ****             break;
 300:Blink.cpp     ****         case 7://phaser
 301:Blink.cpp     ****             if(num == 0) {
 302:Blink.cpp     ****                 return 0;
 303:Blink.cpp     ****             } else if(num == 1){
 304:Blink.cpp     ****                 return p2phFreq;
 305:Blink.cpp     ****             } else {
 306:Blink.cpp     ****                 return p2phdepth;
 307:Blink.cpp     ****             }
 308:Blink.cpp     ****             break;
 309:Blink.cpp     ****         }
 310:Blink.cpp     ****     } else if (profile == 2){
 311:Blink.cpp     ****         switch (effectCount)
 312:Blink.cpp     ****         {
 313:Blink.cpp     ****         case 0://distortion
 314:Blink.cpp     ****             if(num == 0) {
 315:Blink.cpp     ****                 return p3dtone;
ARM GAS  C:\Users\galla\AppData\Local\Temp\ccPx7zrr.s 			page 66


 316:Blink.cpp     ****             } else if(num == 1){
 317:Blink.cpp     ****                 return p3doutgain;
 318:Blink.cpp     ****             } else {
 319:Blink.cpp     ****                 return p3dingain;
 320:Blink.cpp     ****             }
 321:Blink.cpp     ****             break;
 322:Blink.cpp     ****         case 1://fuzz
 323:Blink.cpp     ****             if(num == 0) {
 324:Blink.cpp     ****                 return p3fingain;
 325:Blink.cpp     ****             } else if(num == 1){
 326:Blink.cpp     ****                 return p3fuzz;
 327:Blink.cpp     ****             } else {
 328:Blink.cpp     ****                 return p3ftone;
 329:Blink.cpp     ****             }
 330:Blink.cpp     ****             break;
 331:Blink.cpp     ****         case 2://delay
 332:Blink.cpp     ****             if(num == 0) {
 333:Blink.cpp     ****                 return 0;
 334:Blink.cpp     ****             } else if(num == 1){
 335:Blink.cpp     ****                 return del3.feedback;
 336:Blink.cpp     ****             } else {
 337:Blink.cpp     ****                 return del3.delayTarget/(48000.0*2);
 338:Blink.cpp     ****             }
 339:Blink.cpp     ****             break;
 340:Blink.cpp     ****         case 3://chorus
 341:Blink.cpp     ****             if(num == 0) {
 342:Blink.cpp     ****                 return p3chDelay;
 343:Blink.cpp     ****             } else if(num == 1){
 344:Blink.cpp     ****                 return p3chDepth;
 345:Blink.cpp     ****             } else {
 346:Blink.cpp     ****                 return p3chFreq;
 347:Blink.cpp     ****             }
 348:Blink.cpp     ****             break;
 349:Blink.cpp     ****         case 4://flanger
 350:Blink.cpp     ****             if(num == 0) {
 351:Blink.cpp     ****                 return p3flDelay;
 352:Blink.cpp     ****             } else if(num == 1){
 353:Blink.cpp     ****                 return p3flDepth;
 354:Blink.cpp     ****             } else {
 355:Blink.cpp     ****                 return p3flFreq;
 356:Blink.cpp     ****             }
 357:Blink.cpp     ****             break;
 358:Blink.cpp     ****         case 5://wah
 359:Blink.cpp     ****             return 0;
 360:Blink.cpp     ****             break;
 361:Blink.cpp     ****         case 6://tremolo
 362:Blink.cpp     ****             if(num == 0) {
 363:Blink.cpp     ****                 return 0;
 364:Blink.cpp     ****             } else if(num == 1){
 365:Blink.cpp     ****                 return p3tremDepth;
 366:Blink.cpp     ****             } else {
 367:Blink.cpp     ****                 return p3tremFreq;
 368:Blink.cpp     ****             }
 369:Blink.cpp     ****             break;
 370:Blink.cpp     ****         case 7://phaser
 371:Blink.cpp     ****             if(num == 0) {
 372:Blink.cpp     ****                 return 0;
ARM GAS  C:\Users\galla\AppData\Local\Temp\ccPx7zrr.s 			page 67


 373:Blink.cpp     ****             } else if(num == 1){
 374:Blink.cpp     ****                 return p3phFreq;
 375:Blink.cpp     ****             } else {
 376:Blink.cpp     ****                 return p3phdepth;
 377:Blink.cpp     ****             }
 378:Blink.cpp     ****             break;
 379:Blink.cpp     ****         }   
 380:Blink.cpp     ****     }
 381:Blink.cpp     ****     return 0;
 382:Blink.cpp     **** }
 383:Blink.cpp     **** //reads the knobs and sets the params for later use
 384:Blink.cpp     **** void setEffectPrams(){
 385:Blink.cpp     ****     if(profile == 0) {
 386:Blink.cpp     ****         switch (effectCount)
 387:Blink.cpp     ****         {
 388:Blink.cpp     ****         case 0://distortion
 389:Blink.cpp     ****             p1dtone = knob1;
 390:Blink.cpp     ****             p1doutgain = knob2;
 391:Blink.cpp     ****             p1dingain = knob3;
 392:Blink.cpp     ****             break;
 393:Blink.cpp     ****         case 1://fuzz
 394:Blink.cpp     ****             p1fingain = knob1;
 395:Blink.cpp     ****             p1fuzz = knob2;
 396:Blink.cpp     ****             p1ftone = knob3;
 397:Blink.cpp     ****             break;
 398:Blink.cpp     ****         case 2://delay
 399:Blink.cpp     ****             del1.feedback = knob2;
 400:Blink.cpp     ****             del1.delayTarget = 48000.0*2*knob3;
 401:Blink.cpp     ****             break;
 402:Blink.cpp     ****         case 3://chorus
 403:Blink.cpp     ****             ch.SetDelay(knob1);
 404:Blink.cpp     ****             p1chDelay = knob1;
 405:Blink.cpp     ****             ch.SetLfoDepth(knob2);
 406:Blink.cpp     ****             p1chDepth = knob2;
 407:Blink.cpp     ****             ch.SetLfoFreq(knob3);
 408:Blink.cpp     ****             p1chFreq = knob3;
 409:Blink.cpp     ****             break;
 410:Blink.cpp     ****         case 4://flanger
 411:Blink.cpp     ****             fl.SetDelay(knob1);
 412:Blink.cpp     ****             p1flDelay = knob1;
 413:Blink.cpp     ****             fl.SetLfoDepth(knob2);
 414:Blink.cpp     ****             p1flDepth = knob2;
 415:Blink.cpp     ****             fl.SetLfoFreq(knob3);
 416:Blink.cpp     ****             p1flFreq = knob3;
 417:Blink.cpp     ****             break;
 418:Blink.cpp     ****         case 5://wah
 419:Blink.cpp     ****             wahflt.SetFreq(1200*wah+400);
 420:Blink.cpp     ****             break;
 421:Blink.cpp     ****         case 6://tremolo
 422:Blink.cpp     ****             trem.SetDepth(knob2);
 423:Blink.cpp     ****             p1tremDepth = knob2;
 424:Blink.cpp     ****             trem.SetFreq(knob3*200);
 425:Blink.cpp     ****             p1tremFreq = knob3;
 426:Blink.cpp     ****             break;
 427:Blink.cpp     ****         case 7://phaser
 428:Blink.cpp     ****             ph.SetFreq(knob2*10000);
 429:Blink.cpp     ****             p1phFreq = knob2;
ARM GAS  C:\Users\galla\AppData\Local\Temp\ccPx7zrr.s 			page 68


 430:Blink.cpp     ****             ph.SetLfoFreq(knob2*10000);
 431:Blink.cpp     ****             ph.SetLfoDepth(knob3);
 432:Blink.cpp     ****             p1phdepth = knob3;
 433:Blink.cpp     **** 
 434:Blink.cpp     ****             break;
 435:Blink.cpp     ****         
 436:Blink.cpp     ****         default:
 437:Blink.cpp     ****             break;
 438:Blink.cpp     ****         }
 439:Blink.cpp     ****     } else if(profile == 1){
 440:Blink.cpp     ****         switch (effectCount)
 441:Blink.cpp     ****         {
 442:Blink.cpp     ****         case 0://distortion
 443:Blink.cpp     ****             p2dtone = knob1;
 444:Blink.cpp     ****             p2doutgain = knob2;
 445:Blink.cpp     ****             p2dingain = knob3;
 446:Blink.cpp     ****             break;
 447:Blink.cpp     ****         case 1://fuzz
 448:Blink.cpp     ****             p2ftone = knob1;
 449:Blink.cpp     ****             p2fuzz = knob2;
 450:Blink.cpp     ****             p2fingain = knob3;
 451:Blink.cpp     ****             break;
 452:Blink.cpp     ****         case 2://delay
 453:Blink.cpp     ****             del2.delayTarget = 48000.0*2*knob2;
 454:Blink.cpp     ****             del2.feedback = knob3;
 455:Blink.cpp     ****             break;
 456:Blink.cpp     ****         case 3://chorus
 457:Blink.cpp     ****             ch.SetDelay(knob1);
 458:Blink.cpp     ****             p2chDelay = knob1;
 459:Blink.cpp     ****             ch.SetLfoDepth(knob2);
 460:Blink.cpp     ****             p2chDepth = knob2;
 461:Blink.cpp     ****             ch.SetLfoFreq(knob3);
 462:Blink.cpp     ****             p2chFreq = knob3;
 463:Blink.cpp     ****             break;
 464:Blink.cpp     ****         case 4://flanger
 465:Blink.cpp     ****             fl.SetDelay(knob1);
 466:Blink.cpp     ****             p2flDelay = knob1;
 467:Blink.cpp     ****             fl.SetLfoDepth(knob2);
 468:Blink.cpp     ****             p2flDepth = knob2;
 469:Blink.cpp     ****             fl.SetLfoFreq(knob3);
 470:Blink.cpp     ****             p2flFreq = knob3;
 471:Blink.cpp     ****             break;
 472:Blink.cpp     ****         case 5://wah
 473:Blink.cpp     ****             wahflt.SetFreq(1200*wah+400);
 474:Blink.cpp     ****             break;
 475:Blink.cpp     ****         case 6://tremolo
 476:Blink.cpp     ****             trem.SetDepth(knob2);
 477:Blink.cpp     ****             p2tremDepth = knob2;
 478:Blink.cpp     ****             trem.SetFreq(knob3*200);
 479:Blink.cpp     ****             p2tremFreq = knob3;
 480:Blink.cpp     ****             break;
 481:Blink.cpp     ****         case 7://phaser
 482:Blink.cpp     ****             ph.SetFreq(knob2*10000);
 483:Blink.cpp     ****             p2phFreq = knob2;
 484:Blink.cpp     ****             ph.SetLfoFreq(knob2*10000);
 485:Blink.cpp     ****             ph.SetLfoDepth(knob3);
 486:Blink.cpp     ****             p2phdepth = knob3;
ARM GAS  C:\Users\galla\AppData\Local\Temp\ccPx7zrr.s 			page 69


 487:Blink.cpp     ****             break;
 488:Blink.cpp     ****         default:
 489:Blink.cpp     ****             break;
 490:Blink.cpp     ****         }
 491:Blink.cpp     ****     } else if(profile == 2){
 492:Blink.cpp     ****         switch (effectCount)
 493:Blink.cpp     ****         {
 494:Blink.cpp     ****         case 0://distortion
 495:Blink.cpp     ****             p3dtone = knob1;
 496:Blink.cpp     ****             p3doutgain = knob2;
 497:Blink.cpp     ****             p3dingain = knob3;
 498:Blink.cpp     ****             break;
 499:Blink.cpp     ****         case 1://fuzz
 500:Blink.cpp     ****             p3ftone = knob1;
 501:Blink.cpp     ****             p3fuzz = knob2;
 502:Blink.cpp     ****             p3fingain = knob3;
 503:Blink.cpp     ****             break;
 504:Blink.cpp     ****         case 2://delay
 505:Blink.cpp     ****             del3.delayTarget = 48000.0*2*knob2;
 506:Blink.cpp     ****             del3.feedback = knob3;
 507:Blink.cpp     ****             break;
 508:Blink.cpp     ****         case 3://chorus
 509:Blink.cpp     ****             ch.SetDelay(knob1);
 510:Blink.cpp     ****             p3chDelay = knob1;
 511:Blink.cpp     ****             ch.SetLfoDepth(knob2);
 512:Blink.cpp     ****             p3chDepth = knob2;
 513:Blink.cpp     ****             ch.SetLfoFreq(knob3);
 514:Blink.cpp     ****             p3chFreq = knob3;
 515:Blink.cpp     ****             break;
 516:Blink.cpp     ****         case 4://flanger
 517:Blink.cpp     ****             fl.SetDelay(knob1);
 518:Blink.cpp     ****             p3flDelay = knob1;
 519:Blink.cpp     ****             fl.SetLfoDepth(knob2);
 520:Blink.cpp     ****             p3flDepth = knob2;
 521:Blink.cpp     ****             fl.SetLfoFreq(knob3);
 522:Blink.cpp     ****             p3flFreq = knob3;
 523:Blink.cpp     ****             break;
 524:Blink.cpp     ****         case 5://wah
 525:Blink.cpp     ****             wahflt.SetFreq(1200*wah+400);
 526:Blink.cpp     ****             break;
 527:Blink.cpp     ****         case 6://tremolo
 528:Blink.cpp     ****             trem.SetDepth(knob2);
 529:Blink.cpp     ****             p3tremDepth = knob2;
 530:Blink.cpp     ****             trem.SetFreq(knob3*200);
 531:Blink.cpp     ****             p3tremFreq = knob3;
 532:Blink.cpp     ****             break;
 533:Blink.cpp     ****         case 7://phaser
 534:Blink.cpp     ****             ph.SetFreq(knob2*10000);
 535:Blink.cpp     ****             p3phFreq = knob2;
 536:Blink.cpp     ****             ph.SetLfoFreq(knob2*10000);
 537:Blink.cpp     ****             ph.SetLfoDepth(knob3);
 538:Blink.cpp     ****             p3phdepth = knob3;
 539:Blink.cpp     **** 
 540:Blink.cpp     ****             break;
 541:Blink.cpp     ****         
 542:Blink.cpp     ****         default:
 543:Blink.cpp     ****             break;
ARM GAS  C:\Users\galla\AppData\Local\Temp\ccPx7zrr.s 			page 70


 544:Blink.cpp     ****         }
 545:Blink.cpp     ****     }//end if
 546:Blink.cpp     **** }
 547:Blink.cpp     **** 
 548:Blink.cpp     **** //helper method to check if an effect is already on
 549:Blink.cpp     **** bool contains(uint8_t prof){
 550:Blink.cpp     ****     bool x = false;
 551:Blink.cpp     ****     switch (prof){
 552:Blink.cpp     ****     case 0:
 553:Blink.cpp     ****         for(uint8_t i = 0; i < p1Size; i++){
 554:Blink.cpp     ****             if(profile1[i] == effectCount){
 555:Blink.cpp     ****                 x = true;
 556:Blink.cpp     ****             }
 557:Blink.cpp     ****         }
 558:Blink.cpp     ****         break;
 559:Blink.cpp     ****     case 1:
 560:Blink.cpp     ****         for(uint8_t i = 0; i < p2Size; i++){
 561:Blink.cpp     ****             if(profile2[i] == effectCount){
 562:Blink.cpp     ****                 x = true;
 563:Blink.cpp     ****             }
 564:Blink.cpp     ****         }
 565:Blink.cpp     ****         break;
 566:Blink.cpp     ****     case 2:
 567:Blink.cpp     ****         for(uint8_t i = 0; i < p3Size; i++){
 568:Blink.cpp     ****             if(profile3[i] == effectCount){
 569:Blink.cpp     ****                 x = true;
 570:Blink.cpp     ****             }
 571:Blink.cpp     ****         }
 572:Blink.cpp     ****         break;
 573:Blink.cpp     ****     default:
 574:Blink.cpp     ****         break;
 575:Blink.cpp     ****     }
 576:Blink.cpp     ****     return x;
 577:Blink.cpp     **** }
 578:Blink.cpp     **** //gets the pot data
 579:Blink.cpp     **** void ReadPots(){
 580:Blink.cpp     ****     knob1 = abs(1-hw.adc.GetFloat(0));
 581:Blink.cpp     ****     knob2 = abs(1-hw.adc.GetFloat(1));
 582:Blink.cpp     ****     knob3 = abs(1-hw.adc.GetFloat(2));
 583:Blink.cpp     ****     wah = abs(1-hw.adc.GetFloat(3));
 584:Blink.cpp     **** }
 585:Blink.cpp     **** //removes an effect and shifts the effects up
 586:Blink.cpp     **** void removeEffect() {
 587:Blink.cpp     ****     int indexToRemove = -1;
 588:Blink.cpp     ****     if(profile == 0){
 589:Blink.cpp     ****         for (int i = 0; i < p1Size; i++) {
 590:Blink.cpp     ****             if (profile1[i] == effectCount) {
 591:Blink.cpp     ****                 indexToRemove = i;
 592:Blink.cpp     ****                 break;
 593:Blink.cpp     ****                 }
 594:Blink.cpp     ****             }
 595:Blink.cpp     ****         // If the value was found
 596:Blink.cpp     ****         if (indexToRemove != -1) {
 597:Blink.cpp     ****             // Shift elements up to fill the gap
 598:Blink.cpp     ****             for (int i = indexToRemove; i < p1Size; ++i) {
 599:Blink.cpp     ****                 if((i + 1 < 3)){
 600:Blink.cpp     ****                     profile1[i] = profile1[i + 1];
ARM GAS  C:\Users\galla\AppData\Local\Temp\ccPx7zrr.s 			page 71


 601:Blink.cpp     ****                     profile1[i+1] = 9;
 602:Blink.cpp     ****                 } else {
 603:Blink.cpp     ****                     profile1[i] = 9;
 604:Blink.cpp     ****                 }
 605:Blink.cpp     ****                 
 606:Blink.cpp     ****             }
 607:Blink.cpp     ****             // Decrease the size of the array
 608:Blink.cpp     ****             --p1Size;
 609:Blink.cpp     ****         }
 610:Blink.cpp     ****     } else if(profile == 1) {
 611:Blink.cpp     ****         for (int i = 0; i < p2Size; ++i) {
 612:Blink.cpp     ****         if (profile2[i] == effectCount) {
 613:Blink.cpp     ****             indexToRemove = i;
 614:Blink.cpp     ****             break;
 615:Blink.cpp     ****             }
 616:Blink.cpp     ****         }
 617:Blink.cpp     ****         // If the value was found
 618:Blink.cpp     ****         if (indexToRemove != -1) {
 619:Blink.cpp     ****             // Shift elements up to fill the gap
 620:Blink.cpp     ****             for (int i = indexToRemove; i < p2Size; ++i) {
 621:Blink.cpp     ****                 if((i + 1 < 3)){
 622:Blink.cpp     ****                     profile2[i] = profile2[i + 1];
 623:Blink.cpp     ****                     profile2[i+1] = 9;
 624:Blink.cpp     ****                 } else {
 625:Blink.cpp     ****                     profile2[i] = 9;
 626:Blink.cpp     ****                 }
 627:Blink.cpp     ****                 
 628:Blink.cpp     ****             }
 629:Blink.cpp     ****             // Decrease the size of the array
 630:Blink.cpp     ****             --p2Size;
 631:Blink.cpp     ****         }
 632:Blink.cpp     ****     } else {
 633:Blink.cpp     ****         for (int i = 0; i < p3Size; ++i) {
 634:Blink.cpp     ****         if (profile3[i] == effectCount) {
 635:Blink.cpp     ****             indexToRemove = i;
 636:Blink.cpp     ****             break;
 637:Blink.cpp     ****             }
 638:Blink.cpp     ****         }
 639:Blink.cpp     ****         // If the value was found
 640:Blink.cpp     ****         if (indexToRemove != -1) {
 641:Blink.cpp     ****             // Shift elements up to fill the gap
 642:Blink.cpp     ****             for (int i = indexToRemove; i < p3Size; ++i) {
 643:Blink.cpp     ****                 if((i + 1 < 3)){
 644:Blink.cpp     ****                     profile3[i] = profile3[i + 1];
 645:Blink.cpp     ****                     profile3[i+1] = 9;
 646:Blink.cpp     ****                 } else {
 647:Blink.cpp     ****                     profile3[i] = 9;
 648:Blink.cpp     ****                 }
 649:Blink.cpp     ****                 
 650:Blink.cpp     ****             }
 651:Blink.cpp     ****             // Decrease the size of the array
 652:Blink.cpp     ****             --p3Size;
 653:Blink.cpp     ****         }
 654:Blink.cpp     ****     }
 655:Blink.cpp     **** }
 656:Blink.cpp     **** //handles encoder turns after initial press to save new params, cancel, turn effects on or off
 657:Blink.cpp     **** //one function per profile to avoid more nested if statements
ARM GAS  C:\Users\galla\AppData\Local\Temp\ccPx7zrr.s 			page 72


